# SymbolsHelper-Confirmed: 6.2.2 amd64 armel armhf hurd-i386 i386 sh4
libQt6Quick3DUtils.so.6 libqt6quick3dutils6 #MINVER#
* Build-Depends-Package: qt6-quick3d-dev
 (subst)_Z5qHashRKN14QQsbCollection5EntryE{size_t}@Base 6.2.2
 _Z7nonNullPKc@Base 6.2.2
 _ZN11QSSGBounds37includeERK9QVector3D@Base 6.2.2
 _ZN11QSSGBounds37includeERKS_@Base 6.2.2
 _ZN11QSSGBounds39transformERK10QMatrix4x4@Base 6.2.2
 _ZN11QSSGMeshBVHD1Ev@Base 6.2.2
 _ZN11QSSGMeshBVHD2Ev@Base 6.2.2
 (subst)_ZN14QQsbCollection11addQsbEntryERK10QByteArrayRK4QMapIS0_bERK7QShaderS9_{size_t}@Base 6.2.2
 _ZN14QQsbCollection11setFileNameERK7QString@Base 6.2.2
 _ZN14QQsbCollection12dumpQsbcInfoER9QIODevice@Base 6.2.2
 _ZN14QQsbCollection12dumpQsbcInfoERK7QString@Base 6.2.2
 _ZN14QQsbCollection15dumpQsbcInfoImpERS_@Base 6.2.2
 _ZN14QQsbCollection15extractQsbEntryENS_5EntryEP10QByteArrayP4QMapIS1_bEP7QShaderS7_@Base 6.2.2
 _ZN14QQsbCollection3mapENS_7MapModeE@Base 6.2.2
 _ZN14QQsbCollection5unmapEv@Base 6.2.2
 _ZN14QQsbCollectionC1ER9QIODevice@Base 6.2.2
 _ZN14QQsbCollectionC1ERK7QString@Base 6.2.2
 _ZN14QQsbCollectionC2ER9QIODevice@Base 6.2.2
 _ZN14QQsbCollectionC2ERK7QString@Base 6.2.2
 _ZN14QQsbCollectionD1Ev@Base 6.2.2
 _ZN14QQsbCollectionD2Ev@Base 6.2.2
 _ZN18QSSGMeshBVHBuilder19getLongestDimensionERK11QSSGBounds3@Base 6.2.2
 _ZN18QSSGMeshBVHBuilder9buildTreeEv@Base 6.2.2
 _ZN18QSSGMeshBVHBuilder9partitionEjjRKNS_5SplitE@Base 6.2.2
 _ZN18QSSGMeshBVHBuilder9splitNodeEP15QSSGMeshBVHNodejjj@Base 6.2.2
 _ZN18QSSGMeshBVHBuilderC1ERK10QByteArrayiibibS2_23QSSGRenderComponentType@Base 6.2.2
 _ZN18QSSGMeshBVHBuilderC1ERKN8QSSGMesh4MeshE@Base 6.2.2
 _ZN18QSSGMeshBVHBuilderC2ERK10QByteArrayiibibS2_23QSSGRenderComponentType@Base 6.2.2
 _ZN18QSSGMeshBVHBuilderC2ERKN8QSSGMesh4MeshE@Base 6.2.2
 _ZN4vec29magnitudeERK9QVector2D@Base 6.2.2
 _ZN4vec316magnitudeSquaredERK9QVector3D@Base 6.2.2
 _ZN4vec38isFiniteERK9QVector3D@Base 6.2.2
 _ZN4vec39magnitudeERK9QVector3D@Base 6.2.2
 _ZN4vec39normalizeER9QVector3D@Base 6.2.2
 _ZN5color12sRGBToLinearERK6QColor@Base 6.2.2
 _ZN5mat3310getInverseERK14QGenericMatrixILi3ELi3EfE@Base 6.2.2
 _ZN5mat339transformERK14QGenericMatrixILi3ELi3EfERK9QVector3D@Base 6.2.2
 _ZN5mat4411getPositionERK10QMatrix4x4@Base 6.2.2
 _ZN5mat4411getUpper3x3ERK10QMatrix4x4@Base 6.2.2
 _ZN5mat446rotateERK10QMatrix4x4RK9QVector3D@Base 6.2.2
 _ZN5mat446rotateERK10QMatrix4x4RK9QVector4D@Base 6.2.2
 _ZN5mat448getScaleERK10QMatrix4x4@Base 6.2.2
 _ZN5mat449normalizeER10QMatrix4x4@Base 6.2.2
 _ZN5mat449transformERK10QMatrix4x4RK9QVector3D@Base 6.2.2
 _ZN5mat449transformERK10QMatrix4x4RK9QVector4D@Base 6.2.2
 _ZN5quant14inverseRotatedERK11QQuaternionRK9QVector3D@Base 6.2.2
 _ZN5quant6isSaneERK11QQuaternion@Base 6.2.2
 _ZN5quant6isUnitERK11QQuaternion@Base 6.2.2
 _ZN5quant7rotatedERK11QQuaternionRK9QVector3D@Base 6.2.2
 _ZN5quant8isFiniteERK11QQuaternion@Base 6.2.2
 _ZN5quant9magnitudeERK11QQuaternion@Base 6.2.2
 _ZN8QSSGMesh12MeshInternal12readMeshDataEP9QIODeviceyPNS_4MeshEPNS0_14MeshDataHeaderE@Base 6.2.2
 _ZN8QSSGMesh12MeshInternal13writeMeshDataEP9QIODeviceRKNS_4MeshE@Base 6.2.2
 _ZN8QSSGMesh12MeshInternal14readFileHeaderEP9QIODevice@Base 6.2.2
 _ZN8QSSGMesh12MeshInternal15writeFileHeaderEP9QIODeviceRKNS0_13MultiMeshInfoE@Base 6.2.2
 _ZN8QSSGMesh12MeshInternal15writeMeshHeaderEP9QIODeviceRKNS0_14MeshDataHeaderE@Base 6.2.2
 _ZN8QSSGMesh12MeshInternal21calculateSubsetBoundsERKNS_4Mesh17VertexBufferEntryERK10QByteArrayjS7_NS1_13ComponentTypeEjj@Base 6.2.2
 _ZN8QSSGMesh4Mesh13fromAssetDataERK5QListINS_16AssetVertexEntryEERK10QByteArrayNS0_13ComponentTypeERKS1_INS_15AssetMeshSubsetEE@Base 6.2.2
 _ZN8QSSGMesh4Mesh15fromRuntimeDataERKNS_15RuntimeMeshDataEP7QString@Base 6.2.2
 _ZN8QSSGMesh4Mesh7loadAllEP9QIODevice@Base 6.2.2
 _ZN8QSSGMesh4Mesh8loadMeshEP9QIODevicej@Base 6.2.2
 _ZNK11QSSGBounds38isFiniteEv@Base 6.2.2
 _ZNK14QQsbCollection8fileNameEv@Base 6.2.2
 _ZNK18QSSGMeshBVHBuilder15getAverageValueEjjNS_4AxisE@Base 6.2.2
 _ZNK18QSSGMeshBVHBuilder15getOptimalSplitERK11QSSGBounds3jj@Base 6.2.2
 _ZNK18QSSGMeshBVHBuilder19getIndexBufferValueEj@Base 6.2.2
 _ZNK18QSSGMeshBVHBuilder22getVertexBufferValueUVEj@Base 6.2.2
 _ZNK18QSSGMeshBVHBuilder23calculateTriangleBoundsEjj@Base 6.2.2
 _ZNK18QSSGMeshBVHBuilder28getVertexBufferValuePositionEj@Base 6.2.2
 _ZNK18QSSGMeshBVHBuilder9getBoundsEjj@Base 6.2.2
 _ZNK8QSSGMesh4Mesh4saveEP9QIODevicej@Base 6.2.2
 (optional=templinst)_ZNSt8_Rb_treeI10QByteArraySt4pairIKS0_bESt10_Select1stIS3_ESt4lessIS0_ESaIS3_EE24_M_get_insert_unique_posERS2_@Base 6.2.2
 (optional=templinst)_ZNSt8_Rb_treeI10QByteArraySt4pairIKS0_bESt10_Select1stIS3_ESt4lessIS0_ESaIS3_EE29_M_get_insert_hint_unique_posESt23_Rb_tree_const_iteratorIS3_ERS2_@Base 6.2.2
 (optional=templinst)_ZNSt8_Rb_treeIjSt4pairIKjN8QSSGMesh4MeshEESt10_Select1stIS4_ESt4lessIjESaIS4_EE24_M_get_insert_unique_posERS1_@Base 6.2.2
 (optional=templinst|arch=amd64 sh4)_ZNSt8_Rb_treeIjSt4pairIKjN8QSSGMesh4MeshEESt10_Select1stIS4_ESt4lessIjESaIS4_EE29_M_get_insert_hint_unique_posESt23_Rb_tree_const_iteratorIS4_ERS1_@Base 6.2.2
 (optional=templinst)_ZNSt8_Rb_treeIjSt4pairIKjyESt10_Select1stIS2_ESt4lessIjESaIS2_EE24_M_get_insert_unique_posERS1_@Base 6.2.2
 (optional=templinst|arch=amd64 sh4)_ZNSt8_Rb_treeIjSt4pairIKjyESt10_Select1stIS2_ESt4lessIjESaIS2_EE29_M_get_insert_hint_unique_posESt23_Rb_tree_const_iteratorIS2_ERS1_@Base 6.2.2
 _ZeqRKN14QQsbCollection5EntryES2_@Base 6.2.2
 _ZlsR11QDataStreamRKN14QQsbCollection5EntryE@Base 6.2.2
 _ZrsR11QDataStreamRN14QQsbCollection5EntryE@Base 6.2.2
