# SymbolsHelper-Confirmed: 6.4.1 amd64
libQt6Quick3DGlslParser.so.6 libqt6quick3dglslparser6 #MINVER#
* Build-Depends-Package: qt6-quick3d-dev
 (subst)_ZN4GLSL10MemoryPool15allocate_helperE{size_t}@Base 6.3.0
 _ZN4GLSL10MemoryPool5resetEv@Base 6.3.0
 _ZN4GLSL10MemoryPoolC1Ev@Base 6.3.0
 _ZN4GLSL10MemoryPoolC2Ev@Base 6.3.0
 _ZN4GLSL10MemoryPoolD1Ev@Base 6.3.0
 _ZN4GLSL10MemoryPoolD2Ev@Base 6.3.0
 _ZN4GLSL10VectorType15populateMembersEPNS_6EngineE@Base 6.3.0
 _ZN4GLSL10VectorType15populateMembersEPNS_6EngineEPKc@Base 6.3.0
 _ZN4GLSL10VectorType3addEPNS_6SymbolE@Base 6.3.0
 _ZN4GLSL11OverloadSet11addFunctionEPNS_8FunctionE@Base 6.3.0
 _ZN4GLSL11OverloadSet3addEPNS_6SymbolE@Base 6.3.0
 _ZN4GLSL11OverloadSetC1EPNS_5ScopeE@Base 6.3.0
 _ZN4GLSL11OverloadSetC2EPNS_5ScopeE@Base 6.3.0
 _ZN4GLSL12ArrayTypeAST12setPrecisionENS_7TypeAST9PrecisionE@Base 6.3.0
 _ZN4GLSL12ArrayTypeAST7accept0EPNS_7VisitorE@Base 6.3.0
 _ZN4GLSL12BasicTypeAST12setPrecisionENS_7TypeAST9PrecisionE@Base 6.3.0
 _ZN4GLSL12BasicTypeAST7accept0EPNS_7VisitorE@Base 6.3.0
 _ZN4GLSL12BasicTypeASTC1EiPKc@Base 6.3.0
 _ZN4GLSL12BasicTypeASTC2EiPKc@Base 6.3.0
 _ZN4GLSL12NamedTypeAST12setPrecisionENS_7TypeAST9PrecisionE@Base 6.3.0
 _ZN4GLSL12NamedTypeAST7accept0EPNS_7VisitorE@Base 6.3.0
 _ZN4GLSL13StructTypeAST12setPrecisionENS_7TypeAST9PrecisionE@Base 6.3.0
 _ZN4GLSL13StructTypeAST13fixInnerTypesEPNS_7TypeASTEPNS_4ListIPNS0_5FieldEEE@Base 6.3.0
 _ZN4GLSL13StructTypeAST5Field12setInnerTypeEPNS_7TypeASTE@Base 6.3.0
 _ZN4GLSL13StructTypeAST5Field7accept0EPNS_7VisitorE@Base 6.3.0
 _ZN4GLSL13StructTypeAST7accept0EPNS_7VisitorE@Base 6.3.0
 _ZN4GLSL14DoStatementAST7accept0EPNS_7VisitorE@Base 6.3.0
 _ZN4GLSL14IfStatementAST7accept0EPNS_7VisitorE@Base 6.3.0
 _ZN4GLSL15ForStatementAST7accept0EPNS_7VisitorE@Base 6.3.0
 _ZN4GLSL16JumpStatementAST7accept0EPNS_7VisitorE@Base 6.3.0
 _ZN4GLSL16QualifiedTypeAST7accept0EPNS_7VisitorE@Base 6.3.0
 _ZN4GLSL17DiagnosticMessage10setMessageERK7QString@Base 6.3.0
 _ZN4GLSL17DiagnosticMessage11setFileNameERK7QString@Base 6.3.0
 _ZN4GLSL17DiagnosticMessage7setKindENS0_4KindE@Base 6.3.0
 _ZN4GLSL17DiagnosticMessage7setLineEi@Base 6.3.0
 _ZN4GLSL17DiagnosticMessageC1Ev@Base 6.3.0
 _ZN4GLSL17DiagnosticMessageC2Ev@Base 6.3.0
 _ZN4GLSL17WhileStatementAST7accept0EPNS_7VisitorE@Base 6.3.0
 _ZN4GLSL18InitDeclarationAST7accept0EPNS_7VisitorE@Base 6.3.0
 _ZN4GLSL18LayoutQualifierAST7accept0EPNS_7VisitorE@Base 6.3.0
 _ZN4GLSL18ReturnStatementAST7accept0EPNS_7VisitorE@Base 6.3.0
 _ZN4GLSL18SwitchStatementAST7accept0EPNS_7VisitorE@Base 6.3.0
 _ZN4GLSL18TranslationUnitAST7accept0EPNS_7VisitorE@Base 6.3.0
 _ZN4GLSL18TypeDeclarationAST7accept0EPNS_7VisitorE@Base 6.3.0
 _ZN4GLSL18UnaryExpressionAST7accept0EPNS_7VisitorE@Base 6.3.0
 _ZN4GLSL19BinaryExpressionAST7accept0EPNS_7VisitorE@Base 6.3.0
 _ZN4GLSL20CompoundStatementAST7accept0EPNS_7VisitorE@Base 6.3.0
 _ZN4GLSL20LiteralExpressionAST7accept0EPNS_7VisitorE@Base 6.3.0
 _ZN4GLSL20TernaryExpressionAST7accept0EPNS_7VisitorE@Base 6.3.0
 _ZN4GLSL21CaseLabelStatementAST7accept0EPNS_7VisitorE@Base 6.3.0
 _ZN4GLSL21FunctionIdentifierAST7accept0EPNS_7VisitorE@Base 6.3.0
 _ZN4GLSL22ExpressionStatementAST7accept0EPNS_7VisitorE@Base 6.3.0
 _ZN4GLSL22FunctionDeclarationAST7accept0EPNS_7VisitorE@Base 6.3.0
 _ZN4GLSL22VariableDeclarationAST15declarationTypeEPNS_4ListIPNS_14DeclarationASTEEE@Base 6.3.0
 _ZN4GLSL22VariableDeclarationAST7accept0EPNS_7VisitorE@Base 6.3.0
 _ZN4GLSL23AssignmentExpressionAST7accept0EPNS_7VisitorE@Base 6.3.0
 _ZN4GLSL23DeclarationStatementAST7accept0EPNS_7VisitorE@Base 6.3.0
 _ZN4GLSL23IdentifierExpressionAST7accept0EPNS_7VisitorE@Base 6.3.0
 _ZN4GLSL23InvariantDeclarationAST7accept0EPNS_7VisitorE@Base 6.3.0
 _ZN4GLSL23ParameterDeclarationAST7accept0EPNS_7VisitorE@Base 6.3.0
 _ZN4GLSL23PrecisionDeclarationAST7accept0EPNS_7VisitorE@Base 6.3.0
 _ZN4GLSL24DeclarationExpressionAST7accept0EPNS_7VisitorE@Base 6.3.0
 _ZN4GLSL25FunctionCallExpressionAST7accept0EPNS_7VisitorE@Base 6.3.0
 _ZN4GLSL25MemberAccessExpressionAST7accept0EPNS_7VisitorE@Base 6.3.0
 _ZN4GLSL29TypeAndVariableDeclarationAST7accept0EPNS_7VisitorE@Base 6.3.0
 _ZN4GLSL3AST6acceptEPNS_7VisitorE@Base 6.3.0
 _ZN4GLSL3AST6acceptEPS0_PNS_7VisitorE@Base 6.3.0
 _ZN4GLSL4TypeD0Ev@Base 6.3.0
 _ZN4GLSL4TypeD1Ev@Base 6.3.0
 _ZN4GLSL4TypeD2Ev@Base 6.3.0
 _ZN4GLSL5Block3addEPNS_6SymbolE@Base 6.3.0
 _ZN4GLSL5BlockC1EPNS_5ScopeE@Base 6.3.0
 _ZN4GLSL5BlockC2EPNS_5ScopeE@Base 6.3.0
 _ZN4GLSL5Lexer12yylex_helperEPPKcPi@Base 6.3.0
 _ZN4GLSL5Lexer5errorEiRK7QString@Base 6.3.0
 _ZN4GLSL5Lexer5yyinpEv@Base 6.3.0
 _ZN4GLSL5Lexer5yylexEPNS_5TokenE@Base 6.3.0
 _ZN4GLSL5Lexer7warningEiRK7QString@Base 6.3.0
 _ZN4GLSL5Lexer8classifyEPKci@Base 6.3.0
 _ZN4GLSL5Lexer8keywordsEi@Base 6.3.0
 _ZN4GLSL5LexerC1EPNS_6EngineEPKcj@Base 6.3.0
 _ZN4GLSL5LexerC2EPNS_6EngineEPKcj@Base 6.3.0
 _ZN4GLSL5LexerD1Ev@Base 6.3.0
 _ZN4GLSL5LexerD2Ev@Base 6.3.0
 _ZN4GLSL5ScopeC1EPS0_@Base 6.3.0
 _ZN4GLSL5ScopeC2EPS0_@Base 6.3.0
 _ZN4GLSL6Engine10doubleTypeEv@Base 6.3.0
 _ZN4GLSL6Engine10identifierEPKci@Base 6.3.0
 _ZN4GLSL6Engine10identifierERK7QString@Base 6.3.0
 _ZN4GLSL6Engine10matrixTypeEPKNS_4TypeEii@Base 6.3.0
 _ZN4GLSL6Engine10vectorTypeEPKNS_4TypeEi@Base 6.3.0
 _ZN4GLSL6Engine11newArgumentEPNS_8FunctionERK7QStringPKNS_4TypeE@Base 6.3.0
 _ZN4GLSL6Engine11newFunctionEPNS_5ScopeE@Base 6.3.0
 _ZN4GLSL6Engine11newVariableEPNS_5ScopeERK7QStringPKNS_4TypeEi@Base 6.3.0
 _ZN4GLSL6Engine11samplerTypeEi@Base 6.3.0
 _ZN4GLSL6Engine12newNamespaceEv@Base 6.3.0
 _ZN4GLSL6Engine13undefinedTypeEv@Base 6.3.0
 _ZN4GLSL6Engine20addDiagnosticMessageERKNS_17DiagnosticMessageE@Base 6.3.0
 _ZN4GLSL6Engine23blockDiagnosticMessagesEb@Base 6.3.0
 _ZN4GLSL6Engine23clearDiagnosticMessagesEv@Base 6.3.0
 _ZN4GLSL6Engine4poolEv@Base 6.3.0
 _ZN4GLSL6Engine5errorEiRK7QString@Base 6.3.0
 _ZN4GLSL6Engine6numberEPKci@Base 6.3.0
 _ZN4GLSL6Engine6numberERK7QString@Base 6.3.0
 _ZN4GLSL6Engine7intTypeEv@Base 6.3.0
 _ZN4GLSL6Engine7warningEiRK7QString@Base 6.3.0
 _ZN4GLSL6Engine8boolTypeEv@Base 6.3.0
 _ZN4GLSL6Engine8newBlockEPNS_5ScopeE@Base 6.3.0
 _ZN4GLSL6Engine8uintTypeEv@Base 6.3.0
 _ZN4GLSL6Engine8voidTypeEv@Base 6.3.0
 _ZN4GLSL6Engine9arrayTypeEPKNS_4TypeE@Base 6.3.0
 _ZN4GLSL6Engine9floatTypeEv@Base 6.3.0
 _ZN4GLSL6Engine9newStructEPNS_5ScopeE@Base 6.3.0
 _ZN4GLSL6EngineC1Ev@Base 6.3.0
 _ZN4GLSL6EngineC2Ev@Base 6.3.0
 _ZN4GLSL6EngineD1Ev@Base 6.3.0
 _ZN4GLSL6EngineD2Ev@Base 6.3.0
 _ZN4GLSL6Parser5parseEi@Base 6.3.0
 _ZN4GLSL6Parser6reduceEi@Base 6.3.0
 _ZN4GLSL6ParserC1EPNS_6EngineEPKcji@Base 6.3.0
 _ZN4GLSL6ParserC2EPNS_6EngineEPKcji@Base 6.3.0
 _ZN4GLSL6ParserD1Ev@Base 6.3.0
 _ZN4GLSL6ParserD2Ev@Base 6.3.0
 _ZN4GLSL6Struct3addEPNS_6SymbolE@Base 6.3.0
 _ZN4GLSL6Symbol7setNameERK7QString@Base 6.3.0
 _ZN4GLSL6Symbol8setScopeEPNS_5ScopeE@Base 6.3.0
 _ZN4GLSL6SymbolC1EPNS_5ScopeE@Base 6.3.0
 _ZN4GLSL6SymbolC2EPNS_5ScopeE@Base 6.3.0
 _ZN4GLSL6SymbolD0Ev@Base 6.3.0
 _ZN4GLSL6SymbolD1Ev@Base 6.3.0
 _ZN4GLSL6SymbolD2Ev@Base 6.3.0
 _ZN4GLSL7ASTDump8preVisitEPNS_3ASTE@Base 6.3.0
 _ZN4GLSL7ASTDump9postVisitEPNS_3ASTE@Base 6.3.0
 _ZN4GLSL7ASTDumpC1ER11QTextStream@Base 6.3.0
 _ZN4GLSL7ASTDumpC2ER11QTextStream@Base 6.3.0
 _ZN4GLSL7ASTDumpclEPNS_3ASTE@Base 6.3.0
 _ZN4GLSL7ManagedC1Ev@Base 6.3.0
 _ZN4GLSL7ManagedC2Ev@Base 6.3.0
 _ZN4GLSL7ManagedD0Ev@Base 6.3.0
 _ZN4GLSL7ManagedD1Ev@Base 6.3.0
 _ZN4GLSL7ManagedD2Ev@Base 6.3.0
 _ZN4GLSL7ManageddlEPv@Base 6.3.0
 _ZN4GLSL7ManageddlEPvPNS_10MemoryPoolE@Base 6.3.0
 (subst)_ZN4GLSL7ManagednwE{size_t}PNS_10MemoryPoolE@Base 6.3.0
 _ZN4GLSL7Visitor6acceptEPNS_3ASTE@Base 6.3.0
 _ZN4GLSL7VisitorC1Ev@Base 6.3.0
 _ZN4GLSL7VisitorC2Ev@Base 6.3.0
 _ZN4GLSL7VisitorD0Ev@Base 6.3.0
 _ZN4GLSL7VisitorD1Ev@Base 6.3.0
 _ZN4GLSL7VisitorD2Ev@Base 6.3.0
 _ZN4GLSL8Argument7setTypeEPKNS_4TypeE@Base 6.3.0
 _ZN4GLSL8ArgumentC1EPNS_8FunctionE@Base 6.3.0
 _ZN4GLSL8ArgumentC2EPNS_8FunctionE@Base 6.3.0
 _ZN4GLSL8Function11addArgumentEPNS_8ArgumentE@Base 6.3.0
 _ZN4GLSL8Function13setReturnTypeEPKNS_4TypeE@Base 6.3.0
 _ZN4GLSL8Semantic10expressionEPNS_13ExpressionASTE@Base 6.3.0
 _ZN4GLSL8Semantic10expressionEPNS_13ExpressionASTEPNS_5ScopeEPNS_6EngineE@Base 6.3.0
 _ZN4GLSL8Semantic11declarationEPNS_14DeclarationASTE@Base 6.3.0
 _ZN4GLSL8Semantic11switchScopeEPNS_5ScopeE@Base 6.3.0
 _ZN4GLSL8Semantic12switchEngineEPNS_6EngineE@Base 6.3.0
 _ZN4GLSL8Semantic15translationUnitEPNS_18TranslationUnitASTEPNS_5ScopeEPNS_6EngineE@Base 6.3.0
 _ZN4GLSL8Semantic18functionIdentifierEPNS_21FunctionIdentifierASTE@Base 6.3.0
 _ZN4GLSL8Semantic20parameterDeclarationEPNS_23ParameterDeclarationASTEPNS_8FunctionE@Base 6.3.0
 _ZN4GLSL8Semantic4typeEPNS_7TypeASTE@Base 6.3.0
 _ZN4GLSL8Semantic5fieldEPNS_13StructTypeAST5FieldE@Base 6.3.0
 _ZN4GLSL8Semantic5visitEPNS_12ArrayTypeASTE@Base 6.3.0
 _ZN4GLSL8Semantic5visitEPNS_12BasicTypeASTE@Base 6.3.0
 _ZN4GLSL8Semantic5visitEPNS_12NamedTypeASTE@Base 6.3.0
 _ZN4GLSL8Semantic5visitEPNS_13StructTypeAST5FieldE@Base 6.3.0
 _ZN4GLSL8Semantic5visitEPNS_13StructTypeASTE@Base 6.3.0
 _ZN4GLSL8Semantic5visitEPNS_14DoStatementASTE@Base 6.3.0
 _ZN4GLSL8Semantic5visitEPNS_14IfStatementASTE@Base 6.3.0
 _ZN4GLSL8Semantic5visitEPNS_15ForStatementASTE@Base 6.3.0
 _ZN4GLSL8Semantic5visitEPNS_16JumpStatementASTE@Base 6.3.0
 _ZN4GLSL8Semantic5visitEPNS_16QualifiedTypeASTE@Base 6.3.0
 _ZN4GLSL8Semantic5visitEPNS_17WhileStatementASTE@Base 6.3.0
 _ZN4GLSL8Semantic5visitEPNS_18InitDeclarationASTE@Base 6.3.0
 _ZN4GLSL8Semantic5visitEPNS_18ReturnStatementASTE@Base 6.3.0
 _ZN4GLSL8Semantic5visitEPNS_18SwitchStatementASTE@Base 6.3.0
 _ZN4GLSL8Semantic5visitEPNS_18TranslationUnitASTE@Base 6.3.0
 _ZN4GLSL8Semantic5visitEPNS_18TypeDeclarationASTE@Base 6.3.0
 _ZN4GLSL8Semantic5visitEPNS_18UnaryExpressionASTE@Base 6.3.0
 _ZN4GLSL8Semantic5visitEPNS_19BinaryExpressionASTE@Base 6.3.0
 _ZN4GLSL8Semantic5visitEPNS_20CompoundStatementASTE@Base 6.3.0
 _ZN4GLSL8Semantic5visitEPNS_20LiteralExpressionASTE@Base 6.3.0
 _ZN4GLSL8Semantic5visitEPNS_20TernaryExpressionASTE@Base 6.3.0
 _ZN4GLSL8Semantic5visitEPNS_21CaseLabelStatementASTE@Base 6.3.0
 _ZN4GLSL8Semantic5visitEPNS_21FunctionIdentifierASTE@Base 6.3.0
 _ZN4GLSL8Semantic5visitEPNS_22ExpressionStatementASTE@Base 6.3.0
 _ZN4GLSL8Semantic5visitEPNS_22FunctionDeclarationASTE@Base 6.3.0
 _ZN4GLSL8Semantic5visitEPNS_22VariableDeclarationASTE@Base 6.3.0
 _ZN4GLSL8Semantic5visitEPNS_23AssignmentExpressionASTE@Base 6.3.0
 _ZN4GLSL8Semantic5visitEPNS_23DeclarationStatementASTE@Base 6.3.0
 _ZN4GLSL8Semantic5visitEPNS_23IdentifierExpressionASTE@Base 6.3.0
 _ZN4GLSL8Semantic5visitEPNS_23InvariantDeclarationASTE@Base 6.3.0
 _ZN4GLSL8Semantic5visitEPNS_23ParameterDeclarationASTE@Base 6.3.0
 _ZN4GLSL8Semantic5visitEPNS_23PrecisionDeclarationASTE@Base 6.3.0
 _ZN4GLSL8Semantic5visitEPNS_24DeclarationExpressionASTE@Base 6.3.0
 _ZN4GLSL8Semantic5visitEPNS_25FunctionCallExpressionASTE@Base 6.3.0
 _ZN4GLSL8Semantic5visitEPNS_25MemberAccessExpressionASTE@Base 6.3.0
 _ZN4GLSL8Semantic5visitEPNS_29TypeAndVariableDeclarationASTE@Base 6.3.0
 _ZN4GLSL8Semantic9statementEPNS_12StatementASTE@Base 6.3.0
 _ZN4GLSL8SemanticC1Ev@Base 6.3.0
 _ZN4GLSL8SemanticC2Ev@Base 6.3.0
 _ZN4GLSL8SemanticD0Ev@Base 6.3.0
 _ZN4GLSL8SemanticD1Ev@Base 6.3.0
 _ZN4GLSL8SemanticD2Ev@Base 6.3.0
 _ZN4GLSL8Variable7setTypeEPKNS_4TypeE@Base 6.3.0
 _ZN4GLSL8VariableC1EPNS_5ScopeE@Base 6.3.0
 _ZN4GLSL8VariableC2EPNS_5ScopeE@Base 6.3.0
 _ZN4GLSL9Namespace3addEPNS_6SymbolE@Base 6.3.0
 _ZN4GLSL9NamespaceC1Ev@Base 6.3.0
 _ZN4GLSL9NamespaceC2Ev@Base 6.3.0
 _ZN4GLSL9NamespaceD0Ev@Base 6.3.0
 _ZN4GLSL9NamespaceD1Ev@Base 6.3.0
 _ZN4GLSL9NamespaceD2Ev@Base 6.3.0
 _ZNK4GLSL10DoubleType10isLessThanEPKNS_4TypeE@Base 6.3.0
 _ZNK4GLSL10DoubleType9isEqualToEPKNS_4TypeE@Base 6.3.0
 _ZNK4GLSL10MatrixType10isLessThanEPKNS_4TypeE@Base 6.3.0
 _ZNK4GLSL10MatrixType8toStringEv@Base 6.3.0
 _ZNK4GLSL10MatrixType9isEqualToEPKNS_4TypeE@Base 6.3.0
 _ZNK4GLSL10VectorType10isLessThanEPKNS_4TypeE@Base 6.3.0
 _ZNK4GLSL10VectorType4findERK7QString@Base 6.3.0
 _ZNK4GLSL10VectorType8toStringEv@Base 6.3.0
 _ZNK4GLSL10VectorType9isEqualToEPKNS_4TypeE@Base 6.3.0
 _ZNK4GLSL11OverloadSet10isLessThanEPKNS_4TypeE@Base 6.3.0
 _ZNK4GLSL11OverloadSet4findERK7QString@Base 6.3.0
 _ZNK4GLSL11OverloadSet4typeEv@Base 6.3.0
 _ZNK4GLSL11OverloadSet9functionsEv@Base 6.3.0
 _ZNK4GLSL11OverloadSet9isEqualToEPKNS_4TypeE@Base 6.3.0
 _ZNK4GLSL11SamplerType10isLessThanEPKNS_4TypeE@Base 6.3.0
 _ZNK4GLSL11SamplerType8toStringEv@Base 6.3.0
 _ZNK4GLSL11SamplerType9isEqualToEPKNS_4TypeE@Base 6.3.0
 _ZNK4GLSL12ArrayTypeAST9precisionEv@Base 6.3.0
 _ZNK4GLSL12BasicTypeAST9precisionEv@Base 6.3.0
 _ZNK4GLSL12NamedTypeAST9precisionEv@Base 6.3.0
 _ZNK4GLSL13StructTypeAST9precisionEv@Base 6.3.0
 _ZNK4GLSL13UndefinedType10isLessThanEPKNS_4TypeE@Base 6.3.0
 _ZNK4GLSL13UndefinedType9isEqualToEPKNS_4TypeE@Base 6.3.0
 _ZNK4GLSL17DiagnosticMessage4kindEv@Base 6.3.0
 _ZNK4GLSL17DiagnosticMessage4lineEv@Base 6.3.0
 _ZNK4GLSL17DiagnosticMessage7isErrorEv@Base 6.3.0
 _ZNK4GLSL17DiagnosticMessage7messageEv@Base 6.3.0
 _ZNK4GLSL17DiagnosticMessage8fileNameEv@Base 6.3.0
 _ZNK4GLSL17DiagnosticMessage9isWarningEv@Base 6.3.0
 _ZNK4GLSL5Block4findERK7QString@Base 6.3.0
 _ZNK4GLSL5Block4typeEv@Base 6.3.0
 _ZNK4GLSL5Block7membersEv@Base 6.3.0
 _ZNK4GLSL5Lexer11findKeywordEPKci@Base 6.3.0
 _ZNK4GLSL5Scope6lookupERK7QString@Base 6.3.0
 _ZNK4GLSL5Scope7membersEv@Base 6.3.0
 _ZNK4GLSL6Engine11identifiersEv@Base 6.3.0
 _ZNK4GLSL6Engine18diagnosticMessagesEv@Base 6.3.0
 _ZNK4GLSL6Engine7numbersEv@Base 6.3.0
 _ZNK4GLSL6Struct10isLessThanEPKNS_4TypeE@Base 6.3.0
 _ZNK4GLSL6Struct4findERK7QString@Base 6.3.0
 _ZNK4GLSL6Struct7membersEv@Base 6.3.0
 _ZNK4GLSL6Struct9isEqualToEPKNS_4TypeE@Base 6.3.0
 _ZNK4GLSL6Symbol4nameEv@Base 6.3.0
 _ZNK4GLSL6Symbol5scopeEv@Base 6.3.0
 _ZNK4GLSL7IntType10isLessThanEPKNS_4TypeE@Base 6.3.0
 _ZNK4GLSL7IntType9isEqualToEPKNS_4TypeE@Base 6.3.0
 _ZNK4GLSL8Argument4typeEv@Base 6.3.0
 _ZNK4GLSL8BoolType10isLessThanEPKNS_4TypeE@Base 6.3.0
 _ZNK4GLSL8BoolType9isEqualToEPKNS_4TypeE@Base 6.3.0
 _ZNK4GLSL8Function10argumentAtEi@Base 6.3.0
 _ZNK4GLSL8Function10isLessThanEPKNS_4TypeE@Base 6.3.0
 _ZNK4GLSL8Function10returnTypeEv@Base 6.3.0
 _ZNK4GLSL8Function11prettyPrintEv@Base 6.3.0
 _ZNK4GLSL8Function13argumentCountEv@Base 6.3.0
 _ZNK4GLSL8Function4findERK7QString@Base 6.3.0
 _ZNK4GLSL8Function7membersEv@Base 6.3.0
 _ZNK4GLSL8Function8toStringEv@Base 6.3.0
 _ZNK4GLSL8Function9argumentsEv@Base 6.3.0
 _ZNK4GLSL8Function9isEqualToEPKNS_4TypeE@Base 6.3.0
 _ZNK4GLSL8Semantic12implicitCastEPKNS_4TypeES3_@Base 6.3.0
 _ZNK4GLSL8UIntType10isLessThanEPKNS_4TypeE@Base 6.3.0
 _ZNK4GLSL8UIntType9isEqualToEPKNS_4TypeE@Base 6.3.0
 _ZNK4GLSL8Variable4typeEv@Base 6.3.0
 _ZNK4GLSL8VoidType10isLessThanEPKNS_4TypeE@Base 6.3.0
 _ZNK4GLSL8VoidType9isEqualToEPKNS_4TypeE@Base 6.3.0
 _ZNK4GLSL9ArrayType10isLessThanEPKNS_4TypeE@Base 6.3.0
 _ZNK4GLSL9ArrayType8toStringEv@Base 6.3.0
 _ZNK4GLSL9ArrayType9isEqualToEPKNS_4TypeE@Base 6.3.0
 _ZNK4GLSL9FloatType10isLessThanEPKNS_4TypeE@Base 6.3.0
 _ZNK4GLSL9FloatType9isEqualToEPKNS_4TypeE@Base 6.3.0
 _ZNK4GLSL9Namespace4findERK7QString@Base 6.3.0
 _ZNK4GLSL9Namespace4typeEv@Base 6.3.0
 _ZNK4GLSL9Namespace7membersEv@Base 6.3.0
 _ZTIN4GLSL10DoubleTypeE@Base 6.3.0
 _ZTIN4GLSL10MatrixTypeE@Base 6.3.0
 _ZTIN4GLSL10ScalarTypeE@Base 6.3.0
 _ZTIN4GLSL10VectorTypeE@Base 6.3.0
 _ZTIN4GLSL11OverloadSetE@Base 6.3.0
 _ZTIN4GLSL11SamplerTypeE@Base 6.3.0
 _ZTIN4GLSL12ArrayTypeASTE@Base 6.3.0
 _ZTIN4GLSL12BasicTypeASTE@Base 6.3.0
 _ZTIN4GLSL12NamedTypeASTE@Base 6.3.0
 _ZTIN4GLSL12StatementASTE@Base 6.3.0
 _ZTIN4GLSL13ExpressionASTE@Base 6.3.0
 _ZTIN4GLSL13StructTypeAST5FieldE@Base 6.3.0
 _ZTIN4GLSL13StructTypeASTE@Base 6.3.0
 _ZTIN4GLSL13UndefinedTypeE@Base 6.3.0
 _ZTIN4GLSL14DeclarationASTE@Base 6.3.0
 _ZTIN4GLSL14DoStatementASTE@Base 6.3.0
 _ZTIN4GLSL14IfStatementASTE@Base 6.3.0
 _ZTIN4GLSL15ForStatementASTE@Base 6.3.0
 _ZTIN4GLSL16JumpStatementASTE@Base 6.3.0
 _ZTIN4GLSL16QualifiedTypeASTE@Base 6.3.0
 _ZTIN4GLSL17WhileStatementASTE@Base 6.3.0
 _ZTIN4GLSL18InitDeclarationASTE@Base 6.3.0
 _ZTIN4GLSL18LayoutQualifierASTE@Base 6.3.0
 _ZTIN4GLSL18ReturnStatementASTE@Base 6.3.0
 _ZTIN4GLSL18SwitchStatementASTE@Base 6.3.0
 _ZTIN4GLSL18TranslationUnitASTE@Base 6.3.0
 _ZTIN4GLSL18TypeDeclarationASTE@Base 6.3.0
 _ZTIN4GLSL18UnaryExpressionASTE@Base 6.3.0
 _ZTIN4GLSL19BinaryExpressionASTE@Base 6.3.0
 _ZTIN4GLSL20CompoundStatementASTE@Base 6.3.0
 _ZTIN4GLSL20LiteralExpressionASTE@Base 6.3.0
 _ZTIN4GLSL20TernaryExpressionASTE@Base 6.3.0
 _ZTIN4GLSL21CaseLabelStatementASTE@Base 6.3.0
 _ZTIN4GLSL21FunctionIdentifierASTE@Base 6.3.0
 _ZTIN4GLSL22ExpressionStatementASTE@Base 6.3.0
 _ZTIN4GLSL22FunctionDeclarationASTE@Base 6.3.0
 _ZTIN4GLSL22VariableDeclarationASTE@Base 6.3.0
 _ZTIN4GLSL23AssignmentExpressionASTE@Base 6.3.0
 _ZTIN4GLSL23DeclarationStatementASTE@Base 6.3.0
 _ZTIN4GLSL23IdentifierExpressionASTE@Base 6.3.0
 _ZTIN4GLSL23InvariantDeclarationASTE@Base 6.3.0
 _ZTIN4GLSL23ParameterDeclarationASTE@Base 6.3.0
 _ZTIN4GLSL23PrecisionDeclarationASTE@Base 6.3.0
 _ZTIN4GLSL24DeclarationExpressionASTE@Base 6.3.0
 _ZTIN4GLSL25FunctionCallExpressionASTE@Base 6.3.0
 _ZTIN4GLSL25MemberAccessExpressionASTE@Base 6.3.0
 _ZTIN4GLSL29TypeAndVariableDeclarationASTE@Base 6.3.0
 _ZTIN4GLSL3ASTE@Base 6.3.0
 _ZTIN4GLSL4TypeE@Base 6.3.0
 _ZTIN4GLSL5BlockE@Base 6.3.0
 _ZTIN4GLSL5ScopeE@Base 6.3.0
 _ZTIN4GLSL6StructE@Base 6.3.0
 _ZTIN4GLSL6SymbolE@Base 6.3.0
 _ZTIN4GLSL7ASTDumpE@Base 6.3.0
 _ZTIN4GLSL7IntTypeE@Base 6.3.0
 _ZTIN4GLSL7ManagedE@Base 6.3.0
 _ZTIN4GLSL7TypeASTE@Base 6.3.0
 _ZTIN4GLSL7VisitorE@Base 6.3.0
 _ZTIN4GLSL8ArgumentE@Base 6.3.0
 _ZTIN4GLSL8BoolTypeE@Base 6.3.0
 _ZTIN4GLSL8FunctionE@Base 6.3.0
 _ZTIN4GLSL8SemanticE@Base 6.3.0
 _ZTIN4GLSL8UIntTypeE@Base 6.3.0
 _ZTIN4GLSL8VariableE@Base 6.3.0
 _ZTIN4GLSL8VoidTypeE@Base 6.3.0
 _ZTIN4GLSL9ArrayTypeE@Base 6.3.0
 _ZTIN4GLSL9FloatTypeE@Base 6.3.0
 _ZTIN4GLSL9IndexTypeE@Base 6.3.0
 _ZTIN4GLSL9NamespaceE@Base 6.3.0
 _ZTSN4GLSL10DoubleTypeE@Base 6.3.0
 _ZTSN4GLSL10MatrixTypeE@Base 6.3.0
 _ZTSN4GLSL10ScalarTypeE@Base 6.3.0
 _ZTSN4GLSL10VectorTypeE@Base 6.3.0
 _ZTSN4GLSL11OverloadSetE@Base 6.3.0
 _ZTSN4GLSL11SamplerTypeE@Base 6.3.0
 _ZTSN4GLSL12ArrayTypeASTE@Base 6.3.0
 _ZTSN4GLSL12BasicTypeASTE@Base 6.3.0
 _ZTSN4GLSL12NamedTypeASTE@Base 6.3.0
 _ZTSN4GLSL12StatementASTE@Base 6.3.0
 _ZTSN4GLSL13ExpressionASTE@Base 6.3.0
 _ZTSN4GLSL13StructTypeAST5FieldE@Base 6.3.0
 _ZTSN4GLSL13StructTypeASTE@Base 6.3.0
 _ZTSN4GLSL13UndefinedTypeE@Base 6.3.0
 _ZTSN4GLSL14DeclarationASTE@Base 6.3.0
 _ZTSN4GLSL14DoStatementASTE@Base 6.3.0
 _ZTSN4GLSL14IfStatementASTE@Base 6.3.0
 _ZTSN4GLSL15ForStatementASTE@Base 6.3.0
 _ZTSN4GLSL16JumpStatementASTE@Base 6.3.0
 _ZTSN4GLSL16QualifiedTypeASTE@Base 6.3.0
 _ZTSN4GLSL17WhileStatementASTE@Base 6.3.0
 _ZTSN4GLSL18InitDeclarationASTE@Base 6.3.0
 _ZTSN4GLSL18LayoutQualifierASTE@Base 6.3.0
 _ZTSN4GLSL18ReturnStatementASTE@Base 6.3.0
 _ZTSN4GLSL18SwitchStatementASTE@Base 6.3.0
 _ZTSN4GLSL18TranslationUnitASTE@Base 6.3.0
 _ZTSN4GLSL18TypeDeclarationASTE@Base 6.3.0
 _ZTSN4GLSL18UnaryExpressionASTE@Base 6.3.0
 _ZTSN4GLSL19BinaryExpressionASTE@Base 6.3.0
 _ZTSN4GLSL20CompoundStatementASTE@Base 6.3.0
 _ZTSN4GLSL20LiteralExpressionASTE@Base 6.3.0
 _ZTSN4GLSL20TernaryExpressionASTE@Base 6.3.0
 _ZTSN4GLSL21CaseLabelStatementASTE@Base 6.3.0
 _ZTSN4GLSL21FunctionIdentifierASTE@Base 6.3.0
 _ZTSN4GLSL22ExpressionStatementASTE@Base 6.3.0
 _ZTSN4GLSL22FunctionDeclarationASTE@Base 6.3.0
 _ZTSN4GLSL22VariableDeclarationASTE@Base 6.3.0
 _ZTSN4GLSL23AssignmentExpressionASTE@Base 6.3.0
 _ZTSN4GLSL23DeclarationStatementASTE@Base 6.3.0
 _ZTSN4GLSL23IdentifierExpressionASTE@Base 6.3.0
 _ZTSN4GLSL23InvariantDeclarationASTE@Base 6.3.0
 _ZTSN4GLSL23ParameterDeclarationASTE@Base 6.3.0
 _ZTSN4GLSL23PrecisionDeclarationASTE@Base 6.3.0
 _ZTSN4GLSL24DeclarationExpressionASTE@Base 6.3.0
 _ZTSN4GLSL25FunctionCallExpressionASTE@Base 6.3.0
 _ZTSN4GLSL25MemberAccessExpressionASTE@Base 6.3.0
 _ZTSN4GLSL29TypeAndVariableDeclarationASTE@Base 6.3.0
 _ZTSN4GLSL3ASTE@Base 6.3.0
 _ZTSN4GLSL4ListIPNS_12StatementASTEEE@Base 6.3.0
 _ZTSN4GLSL4ListIPNS_13ExpressionASTEEE@Base 6.3.0
 _ZTSN4GLSL4ListIPNS_13StructTypeAST5FieldEEE@Base 6.3.0
 _ZTSN4GLSL4ListIPNS_14DeclarationASTEEE@Base 6.3.0
 _ZTSN4GLSL4ListIPNS_18LayoutQualifierASTEEE@Base 6.3.0
 _ZTSN4GLSL4ListIPNS_23ParameterDeclarationASTEEE@Base 6.3.0
 _ZTSN4GLSL4TypeE@Base 6.3.0
 _ZTSN4GLSL5BlockE@Base 6.3.0
 _ZTSN4GLSL5ScopeE@Base 6.3.0
 _ZTSN4GLSL6StructE@Base 6.3.0
 _ZTSN4GLSL6SymbolE@Base 6.3.0
 _ZTSN4GLSL7ASTDumpE@Base 6.3.0
 _ZTSN4GLSL7IntTypeE@Base 6.3.0
 _ZTSN4GLSL7ManagedE@Base 6.3.0
 _ZTSN4GLSL7TypeASTE@Base 6.3.0
 _ZTSN4GLSL7VisitorE@Base 6.3.0
 _ZTSN4GLSL8ArgumentE@Base 6.3.0
 _ZTSN4GLSL8BoolTypeE@Base 6.3.0
 _ZTSN4GLSL8FunctionE@Base 6.3.0
 _ZTSN4GLSL8SemanticE@Base 6.3.0
 _ZTSN4GLSL8UIntTypeE@Base 6.3.0
 _ZTSN4GLSL8VariableE@Base 6.3.0
 _ZTSN4GLSL8VoidTypeE@Base 6.3.0
 _ZTSN4GLSL9ArrayTypeE@Base 6.3.0
 _ZTSN4GLSL9FloatTypeE@Base 6.3.0
 _ZTSN4GLSL9IndexTypeE@Base 6.3.0
 _ZTSN4GLSL9NamespaceE@Base 6.3.0
 _ZTVN4GLSL10DoubleTypeE@Base 6.3.0
 _ZTVN4GLSL10MatrixTypeE@Base 6.3.0
 _ZTVN4GLSL10VectorTypeE@Base 6.3.0
 _ZTVN4GLSL11OverloadSetE@Base 6.3.0
 _ZTVN4GLSL11SamplerTypeE@Base 6.3.0
 _ZTVN4GLSL12ArrayTypeASTE@Base 6.3.0
 _ZTVN4GLSL12BasicTypeASTE@Base 6.3.0
 _ZTVN4GLSL12NamedTypeASTE@Base 6.3.0
 _ZTVN4GLSL13StructTypeAST5FieldE@Base 6.3.0
 _ZTVN4GLSL13StructTypeASTE@Base 6.3.0
 _ZTVN4GLSL13UndefinedTypeE@Base 6.3.0
 _ZTVN4GLSL14DoStatementASTE@Base 6.3.0
 _ZTVN4GLSL14IfStatementASTE@Base 6.3.0
 _ZTVN4GLSL15ForStatementASTE@Base 6.3.0
 _ZTVN4GLSL16JumpStatementASTE@Base 6.3.0
 _ZTVN4GLSL16QualifiedTypeASTE@Base 6.3.0
 _ZTVN4GLSL17WhileStatementASTE@Base 6.3.0
 _ZTVN4GLSL18InitDeclarationASTE@Base 6.3.0
 _ZTVN4GLSL18LayoutQualifierASTE@Base 6.3.0
 _ZTVN4GLSL18ReturnStatementASTE@Base 6.3.0
 _ZTVN4GLSL18SwitchStatementASTE@Base 6.3.0
 _ZTVN4GLSL18TranslationUnitASTE@Base 6.3.0
 _ZTVN4GLSL18TypeDeclarationASTE@Base 6.3.0
 _ZTVN4GLSL18UnaryExpressionASTE@Base 6.3.0
 _ZTVN4GLSL19BinaryExpressionASTE@Base 6.3.0
 _ZTVN4GLSL20CompoundStatementASTE@Base 6.3.0
 _ZTVN4GLSL20LiteralExpressionASTE@Base 6.3.0
 _ZTVN4GLSL20TernaryExpressionASTE@Base 6.3.0
 _ZTVN4GLSL21CaseLabelStatementASTE@Base 6.3.0
 _ZTVN4GLSL21FunctionIdentifierASTE@Base 6.3.0
 _ZTVN4GLSL22ExpressionStatementASTE@Base 6.3.0
 _ZTVN4GLSL22FunctionDeclarationASTE@Base 6.3.0
 _ZTVN4GLSL22VariableDeclarationASTE@Base 6.3.0
 _ZTVN4GLSL23AssignmentExpressionASTE@Base 6.3.0
 _ZTVN4GLSL23DeclarationStatementASTE@Base 6.3.0
 _ZTVN4GLSL23IdentifierExpressionASTE@Base 6.3.0
 _ZTVN4GLSL23InvariantDeclarationASTE@Base 6.3.0
 _ZTVN4GLSL23ParameterDeclarationASTE@Base 6.3.0
 _ZTVN4GLSL23PrecisionDeclarationASTE@Base 6.3.0
 _ZTVN4GLSL24DeclarationExpressionASTE@Base 6.3.0
 _ZTVN4GLSL25FunctionCallExpressionASTE@Base 6.3.0
 _ZTVN4GLSL25MemberAccessExpressionASTE@Base 6.3.0
 _ZTVN4GLSL29TypeAndVariableDeclarationASTE@Base 6.3.0
 _ZTVN4GLSL4TypeE@Base 6.3.0
 _ZTVN4GLSL5BlockE@Base 6.3.0
 _ZTVN4GLSL5ScopeE@Base 6.3.0
 _ZTVN4GLSL6StructE@Base 6.3.0
 _ZTVN4GLSL6SymbolE@Base 6.3.0
 _ZTVN4GLSL7ASTDumpE@Base 6.3.0
 _ZTVN4GLSL7IntTypeE@Base 6.3.0
 _ZTVN4GLSL7ManagedE@Base 6.3.0
 _ZTVN4GLSL7VisitorE@Base 6.3.0
 _ZTVN4GLSL8ArgumentE@Base 6.3.0
 _ZTVN4GLSL8BoolTypeE@Base 6.3.0
 _ZTVN4GLSL8FunctionE@Base 6.3.0
 _ZTVN4GLSL8SemanticE@Base 6.3.0
 _ZTVN4GLSL8UIntTypeE@Base 6.3.0
 _ZTVN4GLSL8VariableE@Base 6.3.0
 _ZTVN4GLSL8VoidTypeE@Base 6.3.0
 _ZTVN4GLSL9ArrayTypeE@Base 6.3.0
 _ZTVN4GLSL9FloatTypeE@Base 6.3.0
 _ZTVN4GLSL9NamespaceE@Base 6.3.0
 (c++)"non-virtual thunk to GLSL::Function::find(QString const&) const@Base" 6.3.0
 (c++)"non-virtual thunk to GLSL::Function::members() const@Base" 6.3.0
 (c++)"non-virtual thunk to GLSL::OverloadSet::add(GLSL::Symbol*)@Base" 6.3.0
 (c++)"non-virtual thunk to GLSL::OverloadSet::find(QString const&) const@Base" 6.3.0
 (c++)"non-virtual thunk to GLSL::OverloadSet::type() const@Base" 6.3.0
 (c++)"non-virtual thunk to GLSL::Struct::add(GLSL::Symbol*)@Base" 6.3.0
 (c++)"non-virtual thunk to GLSL::Struct::find(QString const&) const@Base" 6.3.0
 (c++)"non-virtual thunk to GLSL::Struct::members() const@Base" 6.3.0
 (c++)"non-virtual thunk to GLSL::VectorType::add(GLSL::Symbol*)@Base" 6.3.0
 (c++)"non-virtual thunk to GLSL::VectorType::find(QString const&) const@Base" 6.3.0
