# SymbolsHelper-Confirmed: 6.2.2 amd64 armel armhf hurd-i386 i386 sh4
libQt6Quick3D.so.6 libqt6quick3d6 #MINVER#
* Build-Depends-Package: qt6-quick3d-dev
 _Z24q_quaternionInterpolatorRK11QQuaternionS1_d@Base 6.2.2
 _Z28qml_register_types_QtQuick3Dv@Base 6.2.2
 _ZGVZN9QMetaType21registerConverterImplI5QListI10QMatrix4x4E9QIterableI13QMetaSequenceEEEbSt8functionIFbPKvPvEES_S_E10unregister@Base 6.2.2
 _ZGVZN9QMetaType21registerConverterImplI5QListI18QQuick3DPickResultE9QIterableI13QMetaSequenceEEEbSt8functionIFbPKvPvEES_S_E10unregister@Base 6.2.2
 _ZGVZN9QMetaType23registerMutableViewImplI5QListI10QMatrix4x4E9QIterableI13QMetaSequenceEEEbSt8functionIFbPvS8_EES_S_E10unregister@Base 6.2.2
 _ZGVZN9QMetaType23registerMutableViewImplI5QListI18QQuick3DPickResultE9QIterableI13QMetaSequenceEEEbSt8functionIFbPvS8_EES_S_E10unregister@Base 6.2.2
 _ZN12QQuick3DNode10setVisibleEb@Base 6.2.2
 _ZN12QQuick3DNode11qt_metacallEN11QMetaObject4CallEiPPv@Base 6.2.2
 _ZN12QQuick3DNode11qt_metacastEPKc@Base 6.2.2
 _ZN12QQuick3DNode11setPositionERK9QVector3D@Base 6.2.2
 _ZN12QQuick3DNode11setRotationERK11QQuaternion@Base 6.2.2
 _ZN12QQuick3DNode12markAllDirtyEv@Base 6.2.2
 _ZN12QQuick3DNode12pivotChangedEv@Base 6.2.2
 _ZN12QQuick3DNode12rightChangedEv@Base 6.2.2
 _ZN12QQuick3DNode12scaleChangedEv@Base 6.2.2
 _ZN12QQuick3DNode13connectNotifyERK11QMetaMethod@Base 6.2.2
 _ZN12QQuick3DNode14forwardChangedEv@Base 6.2.2
 _ZN12QQuick3DNode14setStaticFlagsEi@Base 6.2.2
 _ZN12QQuick3DNode14visibleChangedEv@Base 6.2.2
 _ZN12QQuick3DNode15positionChangedEv@Base 6.2.2
 _ZN12QQuick3DNode15rotationChangedEv@Base 6.2.2
 _ZN12QQuick3DNode15setLocalOpacityEf@Base 6.2.2
 _ZN12QQuick3DNode16disconnectNotifyERK11QMetaMethod@Base 6.2.2
 _ZN12QQuick3DNode16setEulerRotationERK9QVector3D@Base 6.2.2
 _ZN12QQuick3DNode16staticMetaObjectE@Base 6.2.2
 _ZN12QQuick3DNode17componentCompleteEv@Base 6.2.2
 _ZN12QQuick3DNode17sceneScaleChangedEv@Base 6.2.2
 _ZN12QQuick3DNode17updateSpatialNodeEP21QSSGRenderGraphObject@Base 6.2.2
 _ZN12QQuick3DNode18staticFlagsChangedEv@Base 6.2.2
 _ZN12QQuick3DNode19localOpacityChangedEv@Base 6.2.2
 _ZN12QQuick3DNode20eulerRotationChangedEv@Base 6.2.2
 _ZN12QQuick3DNode20scenePositionChangedEv@Base 6.2.2
 _ZN12QQuick3DNode20sceneRotationChangedEv@Base 6.2.2
 _ZN12QQuick3DNode21sceneTransformChangedEv@Base 6.2.2
 _ZN12QQuick3DNode4setXEf@Base 6.2.2
 _ZN12QQuick3DNode4setYEf@Base 6.2.2
 _ZN12QQuick3DNode4setZEf@Base 6.2.2
 _ZN12QQuick3DNode6rotateEdRK9QVector3DNS_14TransformSpaceE@Base 6.2.2
 _ZN12QQuick3DNode8setPivotERK9QVector3D@Base 6.2.2
 _ZN12QQuick3DNode8setScaleERK9QVector3D@Base 6.2.2
 _ZN12QQuick3DNode8xChangedEv@Base 6.2.2
 _ZN12QQuick3DNode8yChangedEv@Base 6.2.2
 _ZN12QQuick3DNode8zChangedEv@Base 6.2.2
 _ZN12QQuick3DNode9upChangedEv@Base 6.2.2
 _ZN12QQuick3DNodeC1EPS_@Base 6.2.2
 _ZN12QQuick3DNodeC1ER19QQuick3DNodePrivatePS_@Base 6.2.2
 _ZN12QQuick3DNodeC2EPS_@Base 6.2.2
 _ZN12QQuick3DNodeC2ER19QQuick3DNodePrivatePS_@Base 6.2.2
 _ZN12QQuick3DNodeD0Ev@Base 6.2.2
 _ZN12QQuick3DNodeD1Ev@Base 6.2.2
 _ZN12QQuick3DNodeD2Ev@Base 6.2.2
 _ZN13QMetaSequence12MetaSequenceI5QListI10QMatrix4x4EE5valueE@Base 6.2.2
 _ZN13QMetaSequence12MetaSequenceI5QListI18QQuick3DPickResultEE5valueE@Base 6.2.2
 _ZN13QQuick3DJoint11qt_metacallEN11QMetaObject4CallEiPPv@Base 6.2.2
 _ZN13QQuick3DJoint11qt_metacastEPKc@Base 6.2.2
 _ZN13QQuick3DJoint12indexChangedEv@Base 6.2.2
 _ZN13QQuick3DJoint12markAllDirtyEv@Base 6.2.2
 _ZN13QQuick3DJoint15setSkeletonRootEP16QQuick3DSkeleton@Base 6.2.2
 _ZN13QQuick3DJoint16staticMetaObjectE@Base 6.2.2
 _ZN13QQuick3DJoint17markSkeletonDirtyEP18QSSGRenderSkeleton@Base 6.2.2
 _ZN13QQuick3DJoint17updateSpatialNodeEP21QSSGRenderGraphObject@Base 6.2.2
 _ZN13QQuick3DJoint19skeletonRootChangedEv@Base 6.2.2
 _ZN13QQuick3DJoint8setIndexEi@Base 6.2.2
 _ZN13QQuick3DJointC1EP12QQuick3DNode@Base 6.2.2
 _ZN13QQuick3DJointC2EP12QQuick3DNode@Base 6.2.2
 _ZN13QQuick3DJointD0Ev@Base 6.2.2
 _ZN13QQuick3DJointD1Ev@Base 6.2.2
 _ZN13QQuick3DJointD2Ev@Base 6.2.2
 _ZN13QQuick3DModel10itemChangeEN14QQuick3DObject10ItemChangeERKNS0_14ItemChangeDataE@Base 6.2.2
 _ZN13QQuick3DModel11qt_metacallEN11QMetaObject4CallEiPPv@Base 6.2.2
 _ZN13QQuick3DModel11qt_metacastEPKc@Base 6.2.2
 _ZN13QQuick3DModel11setGeometryEP16QQuick3DGeometry@Base 6.2.2
 _ZN13QQuick3DModel11setPickableEb@Base 6.2.2
 _ZN13QQuick3DModel11setSkeletonEP16QQuick3DSkeleton@Base 6.2.2
 _ZN13QQuick3DModel12markAllDirtyEv@Base 6.2.2
 _ZN13QQuick3DModel12morphTargetsEv@Base 6.2.2
 _ZN13QQuick3DModel12setDepthBiasEf@Base 6.2.2
 _ZN13QQuick3DModel13boundsChangedEv@Base 6.2.2
 (subst)_ZN13QQuick3DModel13qmlMaterialAtEP16QQmlListPropertyI16QQuick3DMaterialE{qptrdiff}@Base 6.2.2
 _ZN13QQuick3DModel13setInstancingEP18QQuick3DInstancing@Base 6.2.2
 _ZN13QQuick3DModel13sourceChangedEv@Base 6.2.2
 _ZN13QQuick3DModel15geometryChangedEv@Base 6.2.2
 _ZN13QQuick3DModel15pickableChangedEv@Base 6.2.2
 _ZN13QQuick3DModel15setCastsShadowsEb@Base 6.2.2
 _ZN13QQuick3DModel15setInstanceRootEP12QQuick3DNode@Base 6.2.2
 _ZN13QQuick3DModel15skeletonChangedEv@Base 6.2.2
 _ZN13QQuick3DModel15translateSourceEv@Base 6.2.2
 _ZN13QQuick3DModel16depthBiasChangedEv@Base 6.2.2
 (subst)_ZN13QQuick3DModel16qmlMorphTargetAtEP16QQmlListPropertyI19QQuick3DMorphTargetE{qptrdiff}@Base 6.2.2
 _ZN13QQuick3DModel16staticMetaObjectE@Base 6.2.2
 _ZN13QQuick3DModel17instancingChangedEv@Base 6.2.2
 _ZN13QQuick3DModel17qmlAppendMaterialEP16QQmlListPropertyI16QQuick3DMaterialEPS1_@Base 6.2.2
 _ZN13QQuick3DModel17qmlClearMaterialsEP16QQmlListPropertyI16QQuick3DMaterialE@Base 6.2.2
 _ZN13QQuick3DModel17qmlMaterialsCountEP16QQmlListPropertyI16QQuick3DMaterialE@Base 6.2.2
 _ZN13QQuick3DModel17updateSpatialNodeEP21QSSGRenderGraphObject@Base 6.2.2
 _ZN13QQuick3DModel18setReceivesShadowsEb@Base 6.2.2
 _ZN13QQuick3DModel18updateSceneManagerEP20QQuick3DSceneManager@Base 6.2.2
 _ZN13QQuick3DModel19castsShadowsChangedEv@Base 6.2.2
 _ZN13QQuick3DModel19instanceRootChangedEv@Base 6.2.2
 _ZN13QQuick3DModel19morphTargetsChangedEv@Base 6.2.2
 _ZN13QQuick3DModel19onMaterialDestroyedEP7QObject@Base 6.2.2
 _ZN13QQuick3DModel19setInverseBindPosesERK5QListI10QMatrix4x4E@Base 6.2.2
 _ZN13QQuick3DModel20qmlAppendMorphTargetEP16QQmlListPropertyI19QQuick3DMorphTargetEPS1_@Base 6.2.2
 _ZN13QQuick3DModel20qmlClearMorphTargetsEP16QQmlListPropertyI19QQuick3DMorphTargetE@Base 6.2.2
 _ZN13QQuick3DModel20qmlMorphTargetsCountEP16QQmlListPropertyI19QQuick3DMorphTargetE@Base 6.2.2
 _ZN13QQuick3DModel22onMorphTargetDestroyedEP7QObject@Base 6.2.2
 _ZN13QQuick3DModel22receivesShadowsChangedEv@Base 6.2.2
 _ZN13QQuick3DModel23inverseBindPosesChangedEv@Base 6.2.2
 _ZN13QQuick3DModel9markDirtyENS_18QSSGModelDirtyTypeE@Base 6.2.2
 _ZN13QQuick3DModel9materialsEv@Base 6.2.2
 _ZN13QQuick3DModel9setBoundsERK9QVector3DS2_@Base 6.2.2
 _ZN13QQuick3DModel9setSourceERK4QUrl@Base 6.2.2
 _ZN13QQuick3DModelC1EP12QQuick3DNode@Base 6.2.2
 _ZN13QQuick3DModelC2EP12QQuick3DNode@Base 6.2.2
 _ZN13QQuick3DModelD0Ev@Base 6.2.2
 _ZN13QQuick3DModelD1Ev@Base 6.2.2
 _ZN13QQuick3DModelD2Ev@Base 6.2.2
 _ZN14QQuick3DCamera11qt_metacallEN11QMetaObject4CallEiPPv@Base 6.2.2
 _ZN14QQuick3DCamera11qt_metacastEPKc@Base 6.2.2
 _ZN14QQuick3DCamera13mapToViewportERK9QVector3Ddd@Base 6.2.2
 _ZN14QQuick3DCamera15mapFromViewportERK9QVector3Ddd@Base 6.2.2
 _ZN14QQuick3DCamera16staticMetaObjectE@Base 6.2.2
 _ZN14QQuick3DCamera17updateSpatialNodeEP21QSSGRenderGraphObject@Base 6.2.2
 _ZN14QQuick3DCamera21updateGlobalVariablesERK6QRectF@Base 6.2.2
 _ZN14QQuick3DCamera24setFrustumCullingEnabledEb@Base 6.2.2
 _ZN14QQuick3DCamera28frustumCullingEnabledChangedEv@Base 6.2.2
 _ZN14QQuick3DCamera6lookAtEP12QQuick3DNode@Base 6.2.2
 _ZN14QQuick3DCamera6lookAtERK9QVector3D@Base 6.2.2
 _ZN14QQuick3DCameraC1ER19QQuick3DNodePrivateP12QQuick3DNode@Base 6.2.2
 _ZN14QQuick3DCameraC2ER19QQuick3DNodePrivateP12QQuick3DNode@Base 6.2.2
 _ZN14QQuick3DEffect10itemChangeEN14QQuick3DObject10ItemChangeERKNS0_14ItemChangeDataE@Base 6.2.2
 _ZN14QQuick3DEffect11qt_metacallEN11QMetaObject4CallEiPPv@Base 6.2.2
 _ZN14QQuick3DEffect11qt_metacastEPKc@Base 6.2.2
 _ZN14QQuick3DEffect12qmlPassClearEP16QQmlListPropertyI29QQuick3DShaderUtilsRenderPassE@Base 6.2.2
 _ZN14QQuick3DEffect12qmlPassCountEP16QQmlListPropertyI29QQuick3DShaderUtilsRenderPassE@Base 6.2.2
 _ZN14QQuick3DEffect13qmlAppendPassEP16QQmlListPropertyI29QQuick3DShaderUtilsRenderPassEPS1_@Base 6.2.2
 _ZN14QQuick3DEffect14onTextureDirtyEv@Base 6.2.2
 _ZN14QQuick3DEffect15onPropertyDirtyEv@Base 6.2.2
 _ZN14QQuick3DEffect16staticMetaObjectE@Base 6.2.2
 _ZN14QQuick3DEffect17updateSpatialNodeEP21QSSGRenderGraphObject@Base 6.2.2
 _ZN14QQuick3DEffect18updateSceneManagerEP20QQuick3DSceneManager@Base 6.2.2
 _ZN14QQuick3DEffect20setDynamicTextureMapEP15QQuick3DTextureRK10QByteArray@Base 6.2.2
 _ZN14QQuick3DEffect6passesEv@Base 6.2.2
 _ZN14QQuick3DEffect9markDirtyENS_5DirtyE@Base 6.2.2
 (subst)_ZN14QQuick3DEffect9qmlPassAtEP16QQmlListPropertyI29QQuick3DShaderUtilsRenderPassE{qptrdiff}@Base 6.2.2
 _ZN14QQuick3DEffectC1EP14QQuick3DObject@Base 6.2.2
 _ZN14QQuick3DEffectC2EP14QQuick3DObject@Base 6.2.2
 _ZN14QQuick3DLoader11itemChangedEv@Base 6.2.2
 _ZN14QQuick3DLoader11qt_metacallEN11QMetaObject4CallEiPPv@Base 6.2.2
 _ZN14QQuick3DLoader11qt_metacastEPKc@Base 6.2.2
 _ZN14QQuick3DLoader12sourceLoadedEv@Base 6.2.2
 _ZN14QQuick3DLoader13activeChangedEv@Base 6.2.2
 _ZN14QQuick3DLoader13sourceChangedEv@Base 6.2.2
 _ZN14QQuick3DLoader13statusChangedEv@Base 6.2.2
 _ZN14QQuick3DLoader14loadFromSourceEv@Base 6.2.2
 _ZN14QQuick3DLoader15createComponentEv@Base 6.2.2
 _ZN14QQuick3DLoader15progressChangedEv@Base 6.2.2
 _ZN14QQuick3DLoader15setAsynchronousEb@Base 6.2.2
 _ZN14QQuick3DLoader15setInitialStateEP7QObject@Base 6.2.2
 _ZN14QQuick3DLoader16resolveSourceUrlEP14QQmlV4Function@Base 6.2.2
 _ZN14QQuick3DLoader16staticMetaObjectE@Base 6.2.2
 _ZN14QQuick3DLoader17componentCompleteEv@Base 6.2.2
 _ZN14QQuick3DLoader18setSourceComponentEP13QQmlComponent@Base 6.2.2
 _ZN14QQuick3DLoader19asynchronousChangedEv@Base 6.2.2
 _ZN14QQuick3DLoader20resetSourceComponentEv@Base 6.2.2
 _ZN14QQuick3DLoader21incubatorStateChangedEN13QQmlIncubator6StatusE@Base 6.2.2
 _ZN14QQuick3DLoader22sourceComponentChangedEv@Base 6.2.2
 _ZN14QQuick3DLoader23loadFromSourceComponentEv@Base 6.2.2
 _ZN14QQuick3DLoader28disposeInitialPropertyValuesEv@Base 6.2.2
 _ZN14QQuick3DLoader28extractInitialPropertyValuesEP14QQmlV4FunctionPb@Base 6.2.2
 _ZN14QQuick3DLoader4loadEv@Base 6.2.2
 _ZN14QQuick3DLoader5clearEv@Base 6.2.2
 _ZN14QQuick3DLoader6loadedEv@Base 6.2.2
 _ZN14QQuick3DLoader9setActiveEb@Base 6.2.2
 _ZN14QQuick3DLoader9setSourceEP14QQmlV4Function@Base 6.2.2
 _ZN14QQuick3DLoader9setSourceERK4QUrl@Base 6.2.2
 _ZN14QQuick3DLoader9setSourceERK4QUrlb@Base 6.2.2
 _ZN14QQuick3DLoaderC1EP12QQuick3DNode@Base 6.2.2
 _ZN14QQuick3DLoaderC2EP12QQuick3DNode@Base 6.2.2
 _ZN14QQuick3DLoaderD0Ev@Base 6.2.2
 _ZN14QQuick3DLoaderD1Ev@Base 6.2.2
 _ZN14QQuick3DLoaderD2Ev@Base 6.2.2
 _ZN14QQuick3DObject10classBeginEv@Base 6.2.2
 _ZN14QQuick3DObject10itemChangeENS_10ItemChangeERKNS_14ItemChangeDataE@Base 6.2.2
 _ZN14QQuick3DObject11qt_metacallEN11QMetaObject4CallEiPPv@Base 6.2.2
 _ZN14QQuick3DObject11qt_metacastEPKc@Base 6.2.2
 _ZN14QQuick3DObject12markAllDirtyEv@Base 6.2.2
 _ZN14QQuick3DObject12stateChangedEv@Base 6.2.2
 _ZN14QQuick3DObject13parentChangedEv@Base 6.2.2
 _ZN14QQuick3DObject13setParentItemEPS_@Base 6.2.2
 _ZN14QQuick3DObject15childrenChangedEv@Base 6.2.2
 _ZN14QQuick3DObject16staticMetaObjectE@Base 6.2.2
 _ZN14QQuick3DObject17componentCompleteEv@Base 6.2.2
 _ZN14QQuick3DObject6updateEv@Base 6.2.2
 _ZN14QQuick3DObject7preSyncEv@Base 6.2.2
 _ZN14QQuick3DObject8setStateERK7QString@Base 6.2.2
 _ZN14QQuick3DObjectC1EPS_@Base 6.2.2
 _ZN14QQuick3DObjectC1ER21QQuick3DObjectPrivatePS_@Base 6.2.2
 _ZN14QQuick3DObjectC2EPS_@Base 6.2.2
 _ZN14QQuick3DObjectC2ER21QQuick3DObjectPrivatePS_@Base 6.2.2
 _ZN14QQuick3DObjectD0Ev@Base 6.2.2
 _ZN14QQuick3DObjectD1Ev@Base 6.2.2
 _ZN14QQuick3DObjectD2Ev@Base 6.2.2
 _ZN15QQuick3DBounds316staticMetaObjectE@Base 6.2.2
 _ZN15QQuick3DTexture10itemChangeEN14QQuick3DObject10ItemChangeERKNS0_14ItemChangeDataE@Base 6.2.2
 _ZN15QQuick3DTexture10setIndexUVEi@Base 6.2.2
 _ZN15QQuick3DTexture11qt_metacallEN11QMetaObject4CallEiPPv@Base 6.2.2
 _ZN15QQuick3DTexture11qt_metacastEPKc@Base 6.2.2
 _ZN15QQuick3DTexture12flipUChangedEv@Base 6.2.2
 _ZN15QQuick3DTexture12flipVChangedEv@Base 6.2.2
 _ZN15QQuick3DTexture12markAllDirtyEv@Base 6.2.2
 _ZN15QQuick3DTexture12setMagFilterENS_6FilterE@Base 6.2.2
 _ZN15QQuick3DTexture12setMinFilterENS_6FilterE@Base 6.2.2
 _ZN15QQuick3DTexture12setMipFilterENS_6FilterE@Base 6.2.2
 _ZN15QQuick3DTexture12setPositionUEf@Base 6.2.2
 _ZN15QQuick3DTexture12setPositionVEf@Base 6.2.2
 _ZN15QQuick3DTexture13pivotUChangedEv@Base 6.2.2
 _ZN15QQuick3DTexture13pivotVChangedEv@Base 6.2.2
 _ZN15QQuick3DTexture13scaleUChangedEv@Base 6.2.2
 _ZN15QQuick3DTexture13scaleVChangedEv@Base 6.2.2
 _ZN15QQuick3DTexture13setRotationUVEf@Base 6.2.2
 _ZN15QQuick3DTexture13setSourceItemEP10QQuickItem@Base 6.2.2
 _ZN15QQuick3DTexture13sourceChangedEv@Base 6.2.2
 _ZN15QQuick3DTexture14getRenderImageEv@Base 6.2.2
 _ZN15QQuick3DTexture14indexUVChangedEv@Base 6.2.2
 _ZN15QQuick3DTexture14setMappingModeENS_11MappingModeE@Base 6.2.2
 _ZN15QQuick3DTexture14setTextureDataEP19QQuick3DTextureData@Base 6.2.2
 _ZN15QQuick3DTexture16magFilterChangedEv@Base 6.2.2
 _ZN15QQuick3DTexture16minFilterChangedEv@Base 6.2.2
 _ZN15QQuick3DTexture16mipFilterChangedEv@Base 6.2.2
 _ZN15QQuick3DTexture16positionUChangedEv@Base 6.2.2
 _ZN15QQuick3DTexture16positionVChangedEv@Base 6.2.2
 _ZN15QQuick3DTexture16staticMetaObjectE@Base 6.2.2
 _ZN15QQuick3DTexture17rotationUVChangedEv@Base 6.2.2
 _ZN15QQuick3DTexture17setVerticalTilingENS_10TilingModeE@Base 6.2.2
 _ZN15QQuick3DTexture17sourceItemChangedEv@Base 6.2.2
 _ZN15QQuick3DTexture17updateSpatialNodeEP21QSSGRenderGraphObject@Base 6.2.2
 _ZN15QQuick3DTexture18mappingModeChangedEv@Base 6.2.2
 _ZN15QQuick3DTexture18setAutoOrientationEb@Base 6.2.2
 _ZN15QQuick3DTexture18setGenerateMipmapsEb@Base 6.2.2
 _ZN15QQuick3DTexture18textureDataChangedEv@Base 6.2.2
 _ZN15QQuick3DTexture18trySetSourceParentEv@Base 6.2.2
 _ZN15QQuick3DTexture19itemGeometryChangedEP10QQuickItem20QQuickGeometryChangeRK6QRectF@Base 6.2.2
 _ZN15QQuick3DTexture19setHorizontalTilingENS_10TilingModeE@Base 6.2.2
 _ZN15QQuick3DTexture19sourceItemDestroyedEP7QObject@Base 6.2.2
 _ZN15QQuick3DTexture21verticalTilingChangedEv@Base 6.2.2
 _ZN15QQuick3DTexture22autoOrientationChangedEv@Base 6.2.2
 _ZN15QQuick3DTexture22generateMipmapsChangedEv@Base 6.2.2
 _ZN15QQuick3DTexture23horizontalTilingChangedEv@Base 6.2.2
 _ZN15QQuick3DTexture8setFlipUEb@Base 6.2.2
 _ZN15QQuick3DTexture8setFlipVEb@Base 6.2.2
 _ZN15QQuick3DTexture9markDirtyENS_9DirtyFlagE@Base 6.2.2
 _ZN15QQuick3DTexture9setPivotUEf@Base 6.2.2
 _ZN15QQuick3DTexture9setPivotVEf@Base 6.2.2
 _ZN15QQuick3DTexture9setScaleUEf@Base 6.2.2
 _ZN15QQuick3DTexture9setScaleVEf@Base 6.2.2
 _ZN15QQuick3DTexture9setSourceERK4QUrl@Base 6.2.2
 _ZN15QQuick3DTextureC1EP14QQuick3DObject@Base 6.2.2
 _ZN15QQuick3DTextureC2EP14QQuick3DObject@Base 6.2.2
 _ZN15QQuick3DTextureD0Ev@Base 6.2.2
 _ZN15QQuick3DTextureD1Ev@Base 6.2.2
 _ZN15QQuick3DTextureD2Ev@Base 6.2.2
 _ZN16QQuick3DGeometry11qt_metacallEN11QMetaObject4CallEiPPv@Base 6.2.2
 _ZN16QQuick3DGeometry11qt_metacastEPKc@Base 6.2.2
 _ZN16QQuick3DGeometry12addAttributeENS_9Attribute8SemanticEiNS0_13ComponentTypeE@Base 6.2.2
 _ZN16QQuick3DGeometry12addAttributeERKNS_9AttributeE@Base 6.2.2
 _ZN16QQuick3DGeometry12markAllDirtyEv@Base 6.2.2
 _ZN16QQuick3DGeometry12setIndexDataERK10QByteArray@Base 6.2.2
 _ZN16QQuick3DGeometry12setIndexDataEiRK10QByteArray@Base 6.2.2
 _ZN16QQuick3DGeometry13setVertexDataERK10QByteArray@Base 6.2.2
 _ZN16QQuick3DGeometry13setVertexDataEiRK10QByteArray@Base 6.2.2
 _ZN16QQuick3DGeometry16setPrimitiveTypeENS_13PrimitiveTypeE@Base 6.2.2
 _ZN16QQuick3DGeometry16staticMetaObjectE@Base 6.2.2
 _ZN16QQuick3DGeometry17geometryNodeDirtyEv@Base 6.2.2
 _ZN16QQuick3DGeometry17updateSpatialNodeEP21QSSGRenderGraphObject@Base 6.2.2
 _ZN16QQuick3DGeometry5clearEv@Base 6.2.2
 _ZN16QQuick3DGeometry9setBoundsERK9QVector3DS2_@Base 6.2.2
 _ZN16QQuick3DGeometry9setStrideEi@Base 6.2.2
 _ZN16QQuick3DGeometryC1EP14QQuick3DObject@Base 6.2.2
 _ZN16QQuick3DGeometryC2EP14QQuick3DObject@Base 6.2.2
 _ZN16QQuick3DGeometryD0Ev@Base 6.2.2
 _ZN16QQuick3DGeometryD1Ev@Base 6.2.2
 _ZN16QQuick3DGeometryD2Ev@Base 6.2.2
 _ZN16QQuick3DMaterial10itemChangeEN14QQuick3DObject10ItemChangeERKNS0_14ItemChangeDataE@Base 6.2.2
 _ZN16QQuick3DMaterial11qt_metacallEN11QMetaObject4CallEiPPv@Base 6.2.2
 _ZN16QQuick3DMaterial11qt_metacastEPKc@Base 6.2.2
 _ZN16QQuick3DMaterial11setCullModeENS_8CullModeE@Base 6.2.2
 _ZN16QQuick3DMaterial13setLightProbeEP15QQuick3DTexture@Base 6.2.2
 _ZN16QQuick3DMaterial15cullModeChangedENS_8CullModeE@Base 6.2.2
 _ZN16QQuick3DMaterial16setDepthDrawModeENS_13DepthDrawModeE@Base 6.2.2
 _ZN16QQuick3DMaterial16staticMetaObjectE@Base 6.2.2
 _ZN16QQuick3DMaterial17lightProbeChangedEP15QQuick3DTexture@Base 6.2.2
 _ZN16QQuick3DMaterial17updateSpatialNodeEP21QSSGRenderGraphObject@Base 6.2.2
 _ZN16QQuick3DMaterial18updateSceneManagerEP20QQuick3DSceneManager@Base 6.2.2
 _ZN16QQuick3DMaterial20depthDrawModeChangedENS_13DepthDrawModeE@Base 6.2.2
 _ZN16QQuick3DMaterialC1ER21QQuick3DObjectPrivateP14QQuick3DObject@Base 6.2.2
 _ZN16QQuick3DMaterialC2ER21QQuick3DObjectPrivateP14QQuick3DObject@Base 6.2.2
 _ZN16QQuick3DMaterialD0Ev@Base 6.2.2
 _ZN16QQuick3DMaterialD1Ev@Base 6.2.2
 _ZN16QQuick3DMaterialD2Ev@Base 6.2.2
 _ZN16QQuick3DRepeater10initObjectEiP7QObject@Base 6.2.2
 _ZN16QQuick3DRepeater10itemChangeEN14QQuick3DObject10ItemChangeERKNS0_14ItemChangeDataE@Base 6.2.2
 _ZN16QQuick3DRepeater10regenerateEv@Base 6.2.2
 _ZN16QQuick3DRepeater11objectAddedEiP14QQuick3DObject@Base 6.2.2
 _ZN16QQuick3DRepeater11qt_metacallEN11QMetaObject4CallEiPPv@Base 6.2.2
 _ZN16QQuick3DRepeater11qt_metacastEPKc@Base 6.2.2
 _ZN16QQuick3DRepeater11setDelegateEP13QQmlComponent@Base 6.2.2
 _ZN16QQuick3DRepeater12countChangedEv@Base 6.2.2
 _ZN16QQuick3DRepeater12modelChangedEv@Base 6.2.2
 _ZN16QQuick3DRepeater12modelUpdatedERK13QQmlChangeSetb@Base 6.2.2
 _ZN16QQuick3DRepeater12requestItemsEv@Base 6.2.2
 _ZN16QQuick3DRepeater13createdObjectEiP7QObject@Base 6.2.2
 _ZN16QQuick3DRepeater13objectRemovedEiP14QQuick3DObject@Base 6.2.2
 _ZN16QQuick3DRepeater15delegateChangedEv@Base 6.2.2
 _ZN16QQuick3DRepeater16staticMetaObjectE@Base 6.2.2
 _ZN16QQuick3DRepeater17componentCompleteEv@Base 6.2.2
 _ZN16QQuick3DRepeater5clearEv@Base 6.2.2
 _ZN16QQuick3DRepeater8setModelERK8QVariant@Base 6.2.2
 _ZN16QQuick3DRepeaterC1EP12QQuick3DNode@Base 6.2.2
 _ZN16QQuick3DRepeaterC2EP12QQuick3DNode@Base 6.2.2
 _ZN16QQuick3DRepeaterD0Ev@Base 6.2.2
 _ZN16QQuick3DRepeaterD1Ev@Base 6.2.2
 _ZN16QQuick3DRepeaterD2Ev@Base 6.2.2
 _ZN16QQuick3DSkeleton11qt_metacallEN11QMetaObject4CallEiPPv@Base 6.2.2
 _ZN16QQuick3DSkeleton11qt_metacastEPKc@Base 6.2.2
 _ZN16QQuick3DSkeleton16staticMetaObjectE@Base 6.2.2
 _ZN16QQuick3DSkeleton17skeletonNodeDirtyEv@Base 6.2.2
 _ZN16QQuick3DSkeleton17updateSpatialNodeEP21QSSGRenderGraphObject@Base 6.2.2
 _ZN16QQuick3DSkeletonC1EP12QQuick3DNode@Base 6.2.2
 _ZN16QQuick3DSkeletonC2EP12QQuick3DNode@Base 6.2.2
 _ZN16QQuick3DSkeletonD0Ev@Base 6.2.2
 _ZN16QQuick3DSkeletonD1Ev@Base 6.2.2
 _ZN16QQuick3DSkeletonD2Ev@Base 6.2.2
 _ZN16QQuick3DViewport10itemChangeEN10QQuickItem10ItemChangeERKNS0_14ItemChangeDataE@Base 6.2.2
 _ZN16QQuick3DViewport11qt_metacallEN11QMetaObject4CallEiPPv@Base 6.2.2
 _ZN16QQuick3DViewport11qt_metacastEPKc@Base 6.2.2
 _ZN16QQuick3DViewport12sceneChangedEv@Base 6.2.2
 _ZN16QQuick3DViewport13cameraChangedEv@Base 6.2.2
 _ZN16QQuick3DViewport13setRenderModeENS_10RenderModeE@Base 6.2.2
 _ZN16QQuick3DViewport14geometryChangeERK6QRectFS2_@Base 6.2.2
 _ZN16QQuick3DViewport14setEnvironmentEP24QQuick3DSceneEnvironment@Base 6.2.2
 _ZN16QQuick3DViewport14setImportSceneEP12QQuick3DNode@Base 6.2.2
 _ZN16QQuick3DViewport15updatePaintNodeEP7QSGNodePN10QQuickItem19UpdatePaintNodeDataE@Base 6.2.2
 _ZN16QQuick3DViewport16cleanupResourcesEv@Base 6.2.2
 _ZN16QQuick3DViewport16releaseResourcesEv@Base 6.2.2
 _ZN16QQuick3DViewport16staticMetaObjectE@Base 6.2.2
 _ZN16QQuick3DViewport17renderModeChangedEv@Base 6.2.2
 _ZN16QQuick3DViewport18environmentChangedEv@Base 6.2.2
 _ZN16QQuick3DViewport18importSceneChangedEv@Base 6.2.2
 _ZN16QQuick3DViewport19setupDirectRendererENS_10RenderModeE@Base 6.2.2
 _ZN16QQuick3DViewport20invalidateSceneGraphEv@Base 6.2.2
 _ZN16QQuick3DViewport21cleanupDirectRendererEv@Base 6.2.2
 _ZN16QQuick3DViewport21findChildSceneManagerEP14QQuick3DObjectP20QQuick3DSceneManager@Base 6.2.2
 _ZN16QQuick3DViewport21updateDynamicTexturesEv@Base 6.2.2
 _ZN16QQuick3DViewport23setGlobalPickingEnabledEb@Base 6.2.2
 _ZN16QQuick3DViewport26processPointerEventFromRayERK9QVector3DS2_P13QPointerEvent@Base 6.2.2
 _ZN16QQuick3DViewport4dataEv@Base 6.2.2
 _ZN16QQuick3DViewport5eventEP6QEvent@Base 6.2.2
 _ZN16QQuick3DViewport9setCameraEP14QQuick3DCamera@Base 6.2.2
 _ZN16QQuick3DViewportC1EP10QQuickItem@Base 6.2.2
 _ZN16QQuick3DViewportC2EP10QQuickItem@Base 6.2.2
 _ZN16QQuick3DViewportD0Ev@Base 6.2.2
 _ZN16QQuick3DViewportD1Ev@Base 6.2.2
 _ZN16QQuick3DViewportD2Ev@Base 6.2.2
 _ZN17QQuick3DSpotLight11qt_metacallEN11QMetaObject4CallEiPPv@Base 6.2.2
 _ZN17QQuick3DSpotLight11qt_metacastEPKc@Base 6.2.2
 _ZN17QQuick3DSpotLight12setConeAngleEf@Base 6.2.2
 _ZN17QQuick3DSpotLight13setLinearFadeEf@Base 6.2.2
 _ZN17QQuick3DSpotLight15setConstantFadeEf@Base 6.2.2
 _ZN17QQuick3DSpotLight16coneAngleChangedEv@Base 6.2.2
 _ZN17QQuick3DSpotLight16setQuadraticFadeEf@Base 6.2.2
 _ZN17QQuick3DSpotLight16staticMetaObjectE@Base 6.2.2
 _ZN17QQuick3DSpotLight17linearFadeChangedEv@Base 6.2.2
 _ZN17QQuick3DSpotLight17setInnerConeAngleEf@Base 6.2.2
 _ZN17QQuick3DSpotLight17updateSpatialNodeEP21QSSGRenderGraphObject@Base 6.2.2
 _ZN17QQuick3DSpotLight19constantFadeChangedEv@Base 6.2.2
 _ZN17QQuick3DSpotLight20quadraticFadeChangedEv@Base 6.2.2
 _ZN17QQuick3DSpotLight21innerConeAngleChangedEv@Base 6.2.2
 _ZN17QQuick3DSpotLightC1EP12QQuick3DNode@Base 6.2.2
 _ZN17QQuick3DSpotLightC2EP12QQuick3DNode@Base 6.2.2
 _ZN18QQuick3DInstancing11qt_metacallEN11QMetaObject4CallEiPPv@Base 6.2.2
 _ZN18QQuick3DInstancing11qt_metacastEPKc@Base 6.2.2
 _ZN18QQuick3DInstancing14instanceBufferEPi@Base 6.2.2
 _ZN18QQuick3DInstancing16staticMetaObjectE@Base 6.2.2
 _ZN18QQuick3DInstancing17instanceNodeDirtyEv@Base 6.2.2
 _ZN18QQuick3DInstancing17updateSpatialNodeEP21QSSGRenderGraphObject@Base 6.2.2
 _ZN18QQuick3DInstancing18setHasTransparencyEb@Base 6.2.2
 _ZN18QQuick3DInstancing19calculateTableEntryERK9QVector3DS2_S2_RK6QColorRK9QVector4D@Base 6.2.2
 _ZN18QQuick3DInstancing22hasTransparencyChangedEv@Base 6.2.2
 _ZN18QQuick3DInstancing22setDepthSortingEnabledEb@Base 6.2.2
 _ZN18QQuick3DInstancing24setInstanceCountOverrideEi@Base 6.2.2
 _ZN18QQuick3DInstancing26depthSortingEnabledChangedEv@Base 6.2.2
 _ZN18QQuick3DInstancing28instanceCountOverrideChangedEv@Base 6.2.2
 _ZN18QQuick3DInstancing33calculateTableEntryFromQuaternionERK9QVector3DS2_RK11QQuaternionRK6QColorRK9QVector4D@Base 6.2.2
 _ZN18QQuick3DInstancing9markDirtyEv@Base 6.2.2
 _ZN18QQuick3DInstancingC1EP14QQuick3DObject@Base 6.2.2
 _ZN18QQuick3DInstancingC2EP14QQuick3DObject@Base 6.2.2
 _ZN18QQuick3DInstancingD0Ev@Base 6.2.2
 _ZN18QQuick3DInstancingD1Ev@Base 6.2.2
 _ZN18QQuick3DInstancingD2Ev@Base 6.2.2
 _ZN18QQuick3DPickResult16staticMetaObjectE@Base 6.2.2
 _ZN18QQuick3DPickResultC1EP13QQuick3DModelfRK9QVector2DRK9QVector3DS7_S7_@Base 6.2.2
 _ZN18QQuick3DPickResultC1Ev@Base 6.2.2
 _ZN18QQuick3DPickResultC2EP13QQuick3DModelfRK9QVector2DRK9QVector3DS7_S7_@Base 6.2.2
 _ZN18QQuick3DPickResultC2Ev@Base 6.2.2
 _ZN18QQuick3DPointLight11qt_metacallEN11QMetaObject4CallEiPPv@Base 6.2.2
 _ZN18QQuick3DPointLight11qt_metacastEPKc@Base 6.2.2
 _ZN18QQuick3DPointLight13setLinearFadeEf@Base 6.2.2
 _ZN18QQuick3DPointLight15setConstantFadeEf@Base 6.2.2
 _ZN18QQuick3DPointLight16setQuadraticFadeEf@Base 6.2.2
 _ZN18QQuick3DPointLight16staticMetaObjectE@Base 6.2.2
 _ZN18QQuick3DPointLight17linearFadeChangedEv@Base 6.2.2
 _ZN18QQuick3DPointLight17updateSpatialNodeEP21QSSGRenderGraphObject@Base 6.2.2
 _ZN18QQuick3DPointLight19constantFadeChangedEv@Base 6.2.2
 _ZN18QQuick3DPointLight20quadraticFadeChangedEv@Base 6.2.2
 _ZN18QQuick3DPointLightC1EP12QQuick3DNode@Base 6.2.2
 _ZN18QQuick3DPointLightC2EP12QQuick3DNode@Base 6.2.2
 _ZN19QQuick3DMorphTarget10numAttribsEv@Base 6.2.2
 _ZN19QQuick3DMorphTarget11qt_metacallEN11QMetaObject4CallEiPPv@Base 6.2.2
 _ZN19QQuick3DMorphTarget11qt_metacastEPKc@Base 6.2.2
 _ZN19QQuick3DMorphTarget12markAllDirtyEv@Base 6.2.2
 _ZN19QQuick3DMorphTarget13setAttributesE6QFlagsINS_20MorphTargetAttributeEE@Base 6.2.2
 _ZN19QQuick3DMorphTarget13weightChangedEv@Base 6.2.2
 _ZN19QQuick3DMorphTarget16staticMetaObjectE@Base 6.2.2
 _ZN19QQuick3DMorphTarget17attributesChangedEv@Base 6.2.2
 _ZN19QQuick3DMorphTarget17updateSpatialNodeEP21QSSGRenderGraphObject@Base 6.2.2
 _ZN19QQuick3DMorphTarget9markDirtyENS_24QSSGMorphTargetDirtyTypeE@Base 6.2.2
 _ZN19QQuick3DMorphTarget9setWeightEf@Base 6.2.2
 _ZN19QQuick3DMorphTargetC1EP14QQuick3DObject@Base 6.2.2
 _ZN19QQuick3DMorphTargetC2EP14QQuick3DObject@Base 6.2.2
 _ZN19QQuick3DMorphTargetD0Ev@Base 6.2.2
 _ZN19QQuick3DMorphTargetD1Ev@Base 6.2.2
 _ZN19QQuick3DMorphTargetD2Ev@Base 6.2.2
 _ZN19QQuick3DNodePrivate19setIsHiddenInEditorEb@Base 6.2.2
 _ZN19QQuick3DNodePrivate23calculateLocalTransformEv@Base 6.2.2
 _ZN19QQuick3DNodePrivate23markSceneTransformDirtyEv@Base 6.2.2
 _ZN19QQuick3DNodePrivate24calculateGlobalVariablesEv@Base 6.2.2
 _ZN19QQuick3DNodePrivate27emitChangesToSceneTransformEv@Base 6.2.2
 _ZN19QQuick3DNodePrivate4initEv@Base 6.2.2
 _ZN19QQuick3DNodePrivateC1EN21QSSGRenderGraphObject4TypeE@Base 6.2.2
 _ZN19QQuick3DNodePrivateC2EN21QSSGRenderGraphObject4TypeE@Base 6.2.2
 _ZN19QQuick3DNodePrivateD0Ev@Base 6.2.2
 _ZN19QQuick3DNodePrivateD1Ev@Base 6.2.2
 _ZN19QQuick3DNodePrivateD2Ev@Base 6.2.2
 _ZN19QQuick3DRenderStats10fpsChangedEv@Base 6.2.2
 _ZN19QQuick3DRenderStats11qt_metacallEN11QMetaObject4CallEiPPv@Base 6.2.2
 _ZN19QQuick3DRenderStats11qt_metacastEPKc@Base 6.2.2
 _ZN19QQuick3DRenderStats11startRenderEv@Base 6.2.2
 _ZN19QQuick3DRenderStats15syncTimeChangedEv@Base 6.2.2
 _ZN19QQuick3DRenderStats16endRenderPrepareEv@Base 6.2.2
 _ZN19QQuick3DRenderStats16frameTimeChangedEv@Base 6.2.2
 _ZN19QQuick3DRenderStats16staticMetaObjectE@Base 6.2.2
 _ZN19QQuick3DRenderStats17renderTimeChangedEv@Base 6.2.2
 _ZN19QQuick3DRenderStats18startRenderPrepareEv@Base 6.2.2
 _ZN19QQuick3DRenderStats19maxFrameTimeChangedEv@Base 6.2.2
 _ZN19QQuick3DRenderStats7endSyncEb@Base 6.2.2
 _ZN19QQuick3DRenderStats9endRenderEb@Base 6.2.2
 _ZN19QQuick3DRenderStats9startSyncEv@Base 6.2.2
 _ZN19QQuick3DRenderStatsC1EP7QObject@Base 6.2.2
 _ZN19QQuick3DRenderStatsC2EP7QObject@Base 6.2.2
 _ZN19QQuick3DTextureData11qt_metacallEN11QMetaObject4CallEiPPv@Base 6.2.2
 _ZN19QQuick3DTextureData11qt_metacastEPKc@Base 6.2.2
 _ZN19QQuick3DTextureData12markAllDirtyEv@Base 6.2.2
 _ZN19QQuick3DTextureData14setTextureDataERK10QByteArray@Base 6.2.2
 _ZN19QQuick3DTextureData16staticMetaObjectE@Base 6.2.2
 _ZN19QQuick3DTextureData17updateSpatialNodeEP21QSSGRenderGraphObject@Base 6.2.2
 _ZN19QQuick3DTextureData18setHasTransparencyEb@Base 6.2.2
 _ZN19QQuick3DTextureData20textureDataNodeDirtyEv@Base 6.2.2
 _ZN19QQuick3DTextureData7setSizeERK5QSize@Base 6.2.2
 _ZN19QQuick3DTextureData9setFormatENS_6FormatE@Base 6.2.2
 _ZN19QQuick3DTextureDataC1EP14QQuick3DObject@Base 6.2.2
 _ZN19QQuick3DTextureDataC2EP14QQuick3DObject@Base 6.2.2
 _ZN19QQuick3DTextureDataD0Ev@Base 6.2.2
 _ZN19QQuick3DTextureDataD1Ev@Base 6.2.2
 _ZN19QQuick3DTextureDataD2Ev@Base 6.2.2
 _ZN20QQuick3DCustomCamera11qt_metacallEN11QMetaObject4CallEiPPv@Base 6.2.2
 _ZN20QQuick3DCustomCamera11qt_metacastEPKc@Base 6.2.2
 _ZN20QQuick3DCustomCamera13setProjectionERK10QMatrix4x4@Base 6.2.2
 _ZN20QQuick3DCustomCamera16staticMetaObjectE@Base 6.2.2
 _ZN20QQuick3DCustomCamera17projectionChangedEv@Base 6.2.2
 _ZN20QQuick3DCustomCamera17updateSpatialNodeEP21QSSGRenderGraphObject@Base 6.2.2
 _ZN20QQuick3DCustomCameraC1EP12QQuick3DNode@Base 6.2.2
 _ZN20QQuick3DCustomCameraC2EP12QQuick3DNode@Base 6.2.2
 _ZN20QQuick3DInstanceList11qt_metacallEN11QMetaObject4CallEiPPv@Base 6.2.2
 _ZN20QQuick3DInstanceList11qt_metacastEPKc@Base 6.2.2
 _ZN20QQuick3DInstanceList16staticMetaObjectE@Base 6.2.2
 _ZN20QQuick3DInstanceList17getInstanceBufferEPi@Base 6.2.2
 _ZN20QQuick3DInstanceList19onInstanceDestroyedEP7QObject@Base 6.2.2
 _ZN20QQuick3DInstanceList20generateInstanceDataEv@Base 6.2.2
 _ZN20QQuick3DInstanceList20handleInstanceChangeEv@Base 6.2.2
 (subst)_ZN20QQuick3DInstanceList22qmlInstanceListEntryAtEP16QQmlListPropertyI25QQuick3DInstanceListEntryE{qptrdiff}@Base 6.2.2
 _ZN20QQuick3DInstanceList26qmlAppendInstanceListEntryEP16QQmlListPropertyI25QQuick3DInstanceListEntryEPS1_@Base 6.2.2
 _ZN20QQuick3DInstanceList27qmlClearInstanceListEntriesEP16QQmlListPropertyI25QQuick3DInstanceListEntryE@Base 6.2.2
 _ZN20QQuick3DInstanceList27qmlInstanceListEntriesCountEP16QQmlListPropertyI25QQuick3DInstanceListEntryE@Base 6.2.2
 _ZN20QQuick3DInstanceList9instancesEv@Base 6.2.2
 _ZN20QQuick3DInstanceListC1EP14QQuick3DObject@Base 6.2.2
 _ZN20QQuick3DInstanceListC2EP14QQuick3DObject@Base 6.2.2
 _ZN20QQuick3DInstanceListD0Ev@Base 6.2.2
 _ZN20QQuick3DInstanceListD1Ev@Base 6.2.2
 _ZN20QQuick3DInstanceListD2Ev@Base 6.2.2
 _ZN20QQuick3DSceneManager11forcePolishEv@Base 6.2.2
 _ZN20QQuick3DSceneManager11needsUpdateEv@Base 6.2.2
 _ZN20QQuick3DSceneManager11polishItemsEv@Base 6.2.2
 _ZN20QQuick3DSceneManager11qt_metacallEN11QMetaObject4CallEiPPv@Base 6.2.2
 _ZN20QQuick3DSceneManager11qt_metacastEPKc@Base 6.2.2
 _ZN20QQuick3DSceneManager12cleanupNodesEv@Base 6.2.2
 _ZN20QQuick3DSceneManager13windowChangedEv@Base 6.2.2
 _ZN20QQuick3DSceneManager15updateDirtyNodeEP14QQuick3DObject@Base 6.2.2
 _ZN20QQuick3DSceneManager16staticMetaObjectE@Base 6.2.2
 _ZN20QQuick3DSceneManager16updateDirtyNodesEv@Base 6.2.2
 _ZN20QQuick3DSceneManager19updateBoundingBoxesERK7QSSGRefI17QSSGBufferManagerE@Base 6.2.2
 _ZN20QQuick3DSceneManager19updateDirtyResourceEP14QQuick3DObject@Base 6.2.2
 _ZN20QQuick3DSceneManager22updateDirtySpatialNodeEP12QQuick3DNode@Base 6.2.2
 _ZN20QQuick3DSceneManager4syncEv@Base 6.2.2
 _ZN20QQuick3DSceneManager6windowEv@Base 6.2.2
 _ZN20QQuick3DSceneManager7cleanupEP21QSSGRenderGraphObject@Base 6.2.2
 _ZN20QQuick3DSceneManager7preSyncEv@Base 6.2.2
 _ZN20QQuick3DSceneManager9dirtyItemEP14QQuick3DObject@Base 6.2.2
 _ZN20QQuick3DSceneManager9setWindowEP12QQuickWindow@Base 6.2.2
 _ZN20QQuick3DSceneManagerC1EP7QObject@Base 6.2.2
 _ZN20QQuick3DSceneManagerC2EP7QObject@Base 6.2.2
 _ZN20QQuick3DSceneManagerD0Ev@Base 6.2.2
 _ZN20QQuick3DSceneManagerD1Ev@Base 6.2.2
 _ZN20QQuick3DSceneManagerD2Ev@Base 6.2.2
 _ZN21QQuick3DAbstractLight11qt_metacallEN11QMetaObject4CallEiPPv@Base 6.2.2
 _ZN21QQuick3DAbstractLight11qt_metacastEPKc@Base 6.2.2
 _ZN21QQuick3DAbstractLight12colorChangedEv@Base 6.2.2
 _ZN21QQuick3DAbstractLight12markAllDirtyEv@Base 6.2.2
 _ZN21QQuick3DAbstractLight12scopeChangedEv@Base 6.2.2
 _ZN21QQuick3DAbstractLight13setBrightnessEf@Base 6.2.2
 _ZN21QQuick3DAbstractLight13setShadowBiasEf@Base 6.2.2
 _ZN21QQuick3DAbstractLight14setCastsShadowEb@Base 6.2.2
 _ZN21QQuick3DAbstractLight15setAmbientColorERK6QColor@Base 6.2.2
 _ZN21QQuick3DAbstractLight15setShadowFactorEf@Base 6.2.2
 _ZN21QQuick3DAbstractLight15setShadowFilterEf@Base 6.2.2
 _ZN21QQuick3DAbstractLight15setShadowMapFarEf@Base 6.2.2
 _ZN21QQuick3DAbstractLight16staticMetaObjectE@Base 6.2.2
 _ZN21QQuick3DAbstractLight17brightnessChangedEv@Base 6.2.2
 _ZN21QQuick3DAbstractLight17shadowBiasChangedEv@Base 6.2.2
 _ZN21QQuick3DAbstractLight17updateSpatialNodeEP21QSSGRenderGraphObject@Base 6.2.2
 _ZN21QQuick3DAbstractLight18castsShadowChangedEv@Base 6.2.2
 _ZN21QQuick3DAbstractLight19ambientColorChangedEv@Base 6.2.2
 _ZN21QQuick3DAbstractLight19setShadowMapQualityENS_20QSSGShadowMapQualityE@Base 6.2.2
 _ZN21QQuick3DAbstractLight19shadowFactorChangedEv@Base 6.2.2
 _ZN21QQuick3DAbstractLight19shadowFilterChangedEv@Base 6.2.2
 _ZN21QQuick3DAbstractLight19shadowMapFarChangedEv@Base 6.2.2
 _ZN21QQuick3DAbstractLight21mapToShadowResolutionENS_20QSSGShadowMapQualityE@Base 6.2.2
 _ZN21QQuick3DAbstractLight23shadowMapQualityChangedEv@Base 6.2.2
 _ZN21QQuick3DAbstractLight8setColorERK6QColor@Base 6.2.2
 _ZN21QQuick3DAbstractLight8setScopeEP12QQuick3DNode@Base 6.2.2
 _ZN21QQuick3DAbstractLightC1ER19QQuick3DNodePrivateP12QQuick3DNode@Base 6.2.2
 _ZN21QQuick3DAbstractLightC2ER19QQuick3DNodePrivateP12QQuick3DNode@Base 6.2.2
 _ZN21QQuick3DAbstractLightD0Ev@Base 6.2.2
 _ZN21QQuick3DAbstractLightD1Ev@Base 6.2.2
 _ZN21QQuick3DAbstractLightD2Ev@Base 6.2.2
 _ZN21QQuick3DFrustumCamera10topChangedEv@Base 6.2.2
 _ZN21QQuick3DFrustumCamera11leftChangedEv@Base 6.2.2
 _ZN21QQuick3DFrustumCamera11qt_metacallEN11QMetaObject4CallEiPPv@Base 6.2.2
 _ZN21QQuick3DFrustumCamera11qt_metacastEPKc@Base 6.2.2
 _ZN21QQuick3DFrustumCamera12rightChangedEv@Base 6.2.2
 _ZN21QQuick3DFrustumCamera13bottomChangedEv@Base 6.2.2
 _ZN21QQuick3DFrustumCamera16staticMetaObjectE@Base 6.2.2
 _ZN21QQuick3DFrustumCamera17updateSpatialNodeEP21QSSGRenderGraphObject@Base 6.2.2
 _ZN21QQuick3DFrustumCamera6setTopEf@Base 6.2.2
 _ZN21QQuick3DFrustumCamera7setLeftEf@Base 6.2.2
 _ZN21QQuick3DFrustumCamera8setRightEf@Base 6.2.2
 _ZN21QQuick3DFrustumCamera9setBottomEf@Base 6.2.2
 _ZN21QQuick3DFrustumCameraC1EP12QQuick3DNode@Base 6.2.2
 _ZN21QQuick3DFrustumCameraC2EP12QQuick3DNode@Base 6.2.2
 _ZN21QQuick3DObjectPrivate10data_clearEP16QQmlListPropertyI7QObjectE@Base 6.2.2
 _ZN21QQuick3DObjectPrivate10data_countEP16QQmlListPropertyI7QObjectE@Base 6.2.2
 _ZN21QQuick3DObjectPrivate10itemChangeEN14QQuick3DObject10ItemChangeERKNS0_14ItemChangeDataE@Base 6.2.2
 (subst)_ZN21QQuick3DObjectPrivate11children_atEP16QQmlListPropertyI14QQuick3DObjectE{qptrdiff}@Base 6.2.2
 _ZN21QQuick3DObjectPrivate11data_appendEP16QQmlListPropertyI7QObjectEPS1_@Base 6.2.2
 _ZN21QQuick3DObjectPrivate11removeChildEP14QQuick3DObject@Base 6.2.2
 _ZN21QQuick3DObjectPrivate11transitionsEv@Base 6.2.2
 (subst)_ZN21QQuick3DObjectPrivate12resources_atEP16QQmlListPropertyI7QObjectE{qptrdiff}@Base 6.2.2
 _ZN21QQuick3DObjectPrivate14addToDirtyListEv@Base 6.2.2
 _ZN21QQuick3DObjectPrivate14children_clearEP16QQmlListPropertyI14QQuick3DObjectE@Base 6.2.2
 _ZN21QQuick3DObjectPrivate14children_countEP16QQmlListPropertyI14QQuick3DObjectE@Base 6.2.2
 _ZN21QQuick3DObjectPrivate15children_appendEP16QQmlListPropertyI14QQuick3DObjectEPS1_@Base 6.2.2
 _ZN21QQuick3DObjectPrivate15refSceneManagerER20QQuick3DSceneManager@Base 6.2.2
 _ZN21QQuick3DObjectPrivate15resources_clearEP16QQmlListPropertyI7QObjectE@Base 6.2.2
 _ZN21QQuick3DObjectPrivate15resources_countEP16QQmlListPropertyI7QObjectE@Base 6.2.2
 _ZN21QQuick3DObjectPrivate16resources_appendEP16QQmlListPropertyI7QObjectEPS1_@Base 6.2.2
 _ZN21QQuick3DObjectPrivate17derefSceneManagerEv@Base 6.2.2
 _ZN21QQuick3DObjectPrivate18_q_createJSWrapperEPN3QV415ExecutionEngineE@Base 6.2.2
 _ZN21QQuick3DObjectPrivate18updateSubFocusItemEP14QQuick3DObjectb@Base 6.2.2
 _ZN21QQuick3DObjectPrivate19removeFromDirtyListEv@Base 6.2.2
 _ZN21QQuick3DObjectPrivate19siblingOrderChangedEv@Base 6.2.2
 _ZN21QQuick3DObjectPrivate21addItemChangeListenerEP28QQuick3DObjectChangeListener6QFlagsINS_10ChangeTypeEE@Base 6.2.2
 (optional=templinst)_ZN21QQuick3DObjectPrivate22updatePropertyListenerEP14QQuick3DObjectS1_P20QQuick3DSceneManagerRK10QByteArrayR5QHashIS4_N11QMetaObject10ConnectionEERKSt8functionIFvS1_EE@Base 6.2.2
 _ZN21QQuick3DObjectPrivate23_q_cleanupContentItem2DEv@Base 6.2.2
 _ZN21QQuick3DObjectPrivate23markSortedChildrenDirtyEP14QQuick3DObject@Base 6.2.2
 _ZN21QQuick3DObjectPrivate24_q_resourceObjectDeletedEP7QObject@Base 6.2.2
 _ZN21QQuick3DObjectPrivate24removeItemChangeListenerEP28QQuick3DObjectChangeListener6QFlagsINS_10ChangeTypeEE@Base 6.2.2
 _ZN21QQuick3DObjectPrivate29updateOrAddItemChangeListenerEP28QQuick3DObjectChangeListener6QFlagsINS_10ChangeTypeEE@Base 6.2.2
 _ZN21QQuick3DObjectPrivate4dataEv@Base 6.2.2
 _ZN21QQuick3DObjectPrivate4initEP14QQuick3DObject@Base 6.2.2
 _ZN21QQuick3DObjectPrivate5dirtyENS_9DirtyTypeE@Base 6.2.2
 _ZN21QQuick3DObjectPrivate6statesEv@Base 6.2.2
 _ZN21QQuick3DObjectPrivate7_statesEv@Base 6.2.2
 (subst)_ZN21QQuick3DObjectPrivate7data_atEP16QQmlListPropertyI7QObjectE{qptrdiff}@Base 6.2.2
 _ZN21QQuick3DObjectPrivate8addChildEP14QQuick3DObject@Base 6.2.2
 _ZN21QQuick3DObjectPrivate8childrenEv@Base 6.2.2
 _ZN21QQuick3DObjectPrivate8setStateERK7QString@Base 6.2.2
 _ZN21QQuick3DObjectPrivate9ExtraDataC1Ev@Base 6.2.2
 _ZN21QQuick3DObjectPrivate9ExtraDataC2Ev@Base 6.2.2
 _ZN21QQuick3DObjectPrivate9resourcesEv@Base 6.2.2
 _ZN21QQuick3DObjectPrivate9setCulledEb@Base 6.2.2
 _ZN21QQuick3DObjectPrivateC1EN21QSSGRenderGraphObject4TypeE@Base 6.2.2
 _ZN21QQuick3DObjectPrivateC2EN21QSSGRenderGraphObject4TypeE@Base 6.2.2
 _ZN21QQuick3DObjectPrivateD0Ev@Base 6.2.2
 _ZN21QQuick3DObjectPrivateD1Ev@Base 6.2.2
 _ZN21QQuick3DObjectPrivateD2Ev@Base 6.2.2
 _ZN22QQuick3DCustomMaterial10itemChangeEN14QQuick3DObject10ItemChangeERKNS0_14ItemChangeDataE@Base 6.2.2
 _ZN22QQuick3DCustomMaterial11qt_metacallEN11QMetaObject4CallEiPPv@Base 6.2.2
 _ZN22QQuick3DCustomMaterial11qt_metacastEPKc@Base 6.2.2
 _ZN22QQuick3DCustomMaterial11setDstBlendENS_9BlendModeE@Base 6.2.2
 _ZN22QQuick3DCustomMaterial11setSrcBlendENS_9BlendModeE@Base 6.2.2
 _ZN22QQuick3DCustomMaterial12markAllDirtyEv@Base 6.2.2
 _ZN22QQuick3DCustomMaterial12setLineWidthEf@Base 6.2.2
 _ZN22QQuick3DCustomMaterial14onTextureDirtyEv@Base 6.2.2
 _ZN22QQuick3DCustomMaterial14setAlwaysDirtyEb@Base 6.2.2
 _ZN22QQuick3DCustomMaterial14setShadingModeENS_11ShadingModeE@Base 6.2.2
 _ZN22QQuick3DCustomMaterial15dstBlendChangedEv@Base 6.2.2
 _ZN22QQuick3DCustomMaterial15onPropertyDirtyEv@Base 6.2.2
 _ZN22QQuick3DCustomMaterial15setVertexShaderERK4QUrl@Base 6.2.2
 _ZN22QQuick3DCustomMaterial15srcBlendChangedEv@Base 6.2.2
 _ZN22QQuick3DCustomMaterial16lineWidthChangedEv@Base 6.2.2
 _ZN22QQuick3DCustomMaterial16staticMetaObjectE@Base 6.2.2
 _ZN22QQuick3DCustomMaterial17setFragmentShaderERK4QUrl@Base 6.2.2
 _ZN22QQuick3DCustomMaterial17updateSpatialNodeEP21QSSGRenderGraphObject@Base 6.2.2
 _ZN22QQuick3DCustomMaterial18alwaysDirtyChangedEv@Base 6.2.2
 _ZN22QQuick3DCustomMaterial18shadingModeChangedEv@Base 6.2.2
 _ZN22QQuick3DCustomMaterial19vertexShaderChangedEv@Base 6.2.2
 _ZN22QQuick3DCustomMaterial20setDynamicTextureMapEP15QQuick3DTextureRK10QByteArray@Base 6.2.2
 _ZN22QQuick3DCustomMaterial21fragmentShaderChangedEv@Base 6.2.2
 _ZN22QQuick3DCustomMaterialC1EP14QQuick3DObject@Base 6.2.2
 _ZN22QQuick3DCustomMaterialC2EP14QQuick3DObject@Base 6.2.2
 _ZN22QQuick3DCustomMaterialD0Ev@Base 6.2.2
 _ZN22QQuick3DCustomMaterialD1Ev@Base 6.2.2
 _ZN22QQuick3DCustomMaterialD2Ev@Base 6.2.2
 _ZN22QQuick3DFileInstancing11qt_metacallEN11QMetaObject4CallEiPPv@Base 6.2.2
 _ZN22QQuick3DFileInstancing11qt_metacastEPKc@Base 6.2.2
 _ZN22QQuick3DFileInstancing12loadFromFileERK4QUrl@Base 6.2.2
 _ZN22QQuick3DFileInstancing13sourceChangedEv@Base 6.2.2
 _ZN22QQuick3DFileInstancing15loadFromXmlFileERK7QString@Base 6.2.2
 _ZN22QQuick3DFileInstancing16staticMetaObjectE@Base 6.2.2
 _ZN22QQuick3DFileInstancing17getInstanceBufferEPi@Base 6.2.2
 _ZN22QQuick3DFileInstancing17writeToBinaryFileEP9QIODevice@Base 6.2.2
 _ZN22QQuick3DFileInstancing18loadFromBinaryFileERK7QString@Base 6.2.2
 _ZN22QQuick3DFileInstancing9setSourceERK4QUrl@Base 6.2.2
 _ZN22QQuick3DFileInstancingC1EP14QQuick3DObject@Base 6.2.2
 _ZN22QQuick3DFileInstancingC2EP14QQuick3DObject@Base 6.2.2
 _ZN22QQuick3DFileInstancingD0Ev@Base 6.2.2
 _ZN22QQuick3DFileInstancingD1Ev@Base 6.2.2
 _ZN22QQuick3DFileInstancingD2Ev@Base 6.2.2
 _ZN23QQuick3DDefaultMaterial10itemChangeEN14QQuick3DObject10ItemChangeERKNS0_14ItemChangeDataE@Base 6.2.2
 _ZN23QQuick3DDefaultMaterial10setBumpMapEP15QQuick3DTexture@Base 6.2.2
 _ZN23QQuick3DDefaultMaterial10setOpacityEf@Base 6.2.2
 _ZN23QQuick3DDefaultMaterial11qt_metacallEN11QMetaObject4CallEiPPv@Base 6.2.2
 _ZN23QQuick3DDefaultMaterial11qt_metacastEPKc@Base 6.2.2
 _ZN23QQuick3DDefaultMaterial11setLightingENS_8LightingE@Base 6.2.2
 _ZN23QQuick3DDefaultMaterial12markAllDirtyEv@Base 6.2.2
 _ZN23QQuick3DDefaultMaterial12setBlendModeENS_9BlendModeE@Base 6.2.2
 _ZN23QQuick3DDefaultMaterial12setLineWidthEf@Base 6.2.2
 _ZN23QQuick3DDefaultMaterial12setNormalMapEP15QQuick3DTexture@Base 6.2.2
 _ZN23QQuick3DDefaultMaterial12setPointSizeEf@Base 6.2.2
 _ZN23QQuick3DDefaultMaterial13setBumpAmountEf@Base 6.2.2
 _ZN23QQuick3DDefaultMaterial13setDiffuseMapEP15QQuick3DTexture@Base 6.2.2
 _ZN23QQuick3DDefaultMaterial13setOpacityMapEP15QQuick3DTexture@Base 6.2.2
 _ZN23QQuick3DDefaultMaterial14bumpMapChangedEP15QQuick3DTexture@Base 6.2.2
 _ZN23QQuick3DDefaultMaterial14opacityChangedEf@Base 6.2.2
 _ZN23QQuick3DDefaultMaterial14setEmissiveMapEP15QQuick3DTexture@Base 6.2.2
 _ZN23QQuick3DDefaultMaterial14setSpecularMapEP15QQuick3DTexture@Base 6.2.2
 _ZN23QQuick3DDefaultMaterial15lightingChangedENS_8LightingE@Base 6.2.2
 _ZN23QQuick3DDefaultMaterial15setDiffuseColorE6QColor@Base 6.2.2
 _ZN23QQuick3DDefaultMaterial15setFresnelPowerEf@Base 6.2.2
 _ZN23QQuick3DDefaultMaterial15setRoughnessMapEP15QQuick3DTexture@Base 6.2.2
 _ZN23QQuick3DDefaultMaterial15setSpecularTintE6QColor@Base 6.2.2
 _ZN23QQuick3DDefaultMaterial16blendModeChangedENS_9BlendModeE@Base 6.2.2
 _ZN23QQuick3DDefaultMaterial16lineWidthChangedEv@Base 6.2.2
 _ZN23QQuick3DDefaultMaterial16normalMapChangedEP15QQuick3DTexture@Base 6.2.2
 _ZN23QQuick3DDefaultMaterial16pointSizeChangedEv@Base 6.2.2
 _ZN23QQuick3DDefaultMaterial16setSpecularModelENS_13SpecularModelE@Base 6.2.2
 _ZN23QQuick3DDefaultMaterial16staticMetaObjectE@Base 6.2.2
 _ZN23QQuick3DDefaultMaterial17bumpAmountChangedEf@Base 6.2.2
 _ZN23QQuick3DDefaultMaterial17diffuseMapChangedEP15QQuick3DTexture@Base 6.2.2
 _ZN23QQuick3DDefaultMaterial17opacityMapChangedEP15QQuick3DTexture@Base 6.2.2
 _ZN23QQuick3DDefaultMaterial17setEmissiveFactorE9QVector3D@Base 6.2.2
 _ZN23QQuick3DDefaultMaterial17setOpacityChannelEN16QQuick3DMaterial21TextureChannelMappingE@Base 6.2.2
 _ZN23QQuick3DDefaultMaterial17setSpecularAmountEf@Base 6.2.2
 _ZN23QQuick3DDefaultMaterial17updateSpatialNodeEP21QSSGRenderGraphObject@Base 6.2.2
 _ZN23QQuick3DDefaultMaterial18emissiveMapChangedEP15QQuick3DTexture@Base 6.2.2
 _ZN23QQuick3DDefaultMaterial18setTranslucencyMapEP15QQuick3DTexture@Base 6.2.2
 _ZN23QQuick3DDefaultMaterial18specularMapChangedEP15QQuick3DTexture@Base 6.2.2
 _ZN23QQuick3DDefaultMaterial18updateSceneManagerEP20QQuick3DSceneManager@Base 6.2.2
 _ZN23QQuick3DDefaultMaterial19diffuseColorChangedE6QColor@Base 6.2.2
 _ZN23QQuick3DDefaultMaterial19fresnelPowerChangedEf@Base 6.2.2
 _ZN23QQuick3DDefaultMaterial19roughnessMapChangedEP15QQuick3DTexture@Base 6.2.2
 _ZN23QQuick3DDefaultMaterial19setDiffuseLightWrapEf@Base 6.2.2
 _ZN23QQuick3DDefaultMaterial19setRoughnessChannelEN16QQuick3DMaterial21TextureChannelMappingE@Base 6.2.2
 _ZN23QQuick3DDefaultMaterial19specularTintChangedE6QColor@Base 6.2.2
 _ZN23QQuick3DDefaultMaterial20setIndexOfRefractionEf@Base 6.2.2
 _ZN23QQuick3DDefaultMaterial20setSpecularRoughnessEf@Base 6.2.2
 _ZN23QQuick3DDefaultMaterial20specularModelChangedENS_13SpecularModelE@Base 6.2.2
 _ZN23QQuick3DDefaultMaterial21emissiveFactorChangedE9QVector3D@Base 6.2.2
 _ZN23QQuick3DDefaultMaterial21opacityChannelChangedEN16QQuick3DMaterial21TextureChannelMappingE@Base 6.2.2
 _ZN23QQuick3DDefaultMaterial21setTranslucentFalloffEf@Base 6.2.2
 _ZN23QQuick3DDefaultMaterial21specularAmountChangedEf@Base 6.2.2
 _ZN23QQuick3DDefaultMaterial22setTranslucencyChannelEN16QQuick3DMaterial21TextureChannelMappingE@Base 6.2.2
 _ZN23QQuick3DDefaultMaterial22setVertexColorsEnabledEb@Base 6.2.2
 _ZN23QQuick3DDefaultMaterial22translucencyMapChangedEP15QQuick3DTexture@Base 6.2.2
 _ZN23QQuick3DDefaultMaterial23diffuseLightWrapChangedEf@Base 6.2.2
 _ZN23QQuick3DDefaultMaterial23roughnessChannelChangedEN16QQuick3DMaterial21TextureChannelMappingE@Base 6.2.2
 _ZN23QQuick3DDefaultMaterial24indexOfRefractionChangedEf@Base 6.2.2
 _ZN23QQuick3DDefaultMaterial24setSpecularReflectionMapEP15QQuick3DTexture@Base 6.2.2
 _ZN23QQuick3DDefaultMaterial24specularRoughnessChangedEf@Base 6.2.2
 _ZN23QQuick3DDefaultMaterial25translucentFalloffChangedEf@Base 6.2.2
 _ZN23QQuick3DDefaultMaterial26translucencyChannelChangedEN16QQuick3DMaterial21TextureChannelMappingE@Base 6.2.2
 _ZN23QQuick3DDefaultMaterial26vertexColorsEnabledChangedEb@Base 6.2.2
 _ZN23QQuick3DDefaultMaterial28specularReflectionMapChangedEP15QQuick3DTexture@Base 6.2.2
 _ZN23QQuick3DDefaultMaterial9markDirtyENS_9DirtyTypeE@Base 6.2.2
 _ZN23QQuick3DDefaultMaterialC1EP14QQuick3DObject@Base 6.2.2
 _ZN23QQuick3DDefaultMaterialC2EP14QQuick3DObject@Base 6.2.2
 _ZN23QQuick3DDefaultMaterialD0Ev@Base 6.2.2
 _ZN23QQuick3DDefaultMaterialD1Ev@Base 6.2.2
 _ZN23QQuick3DDefaultMaterialD2Ev@Base 6.2.2
 _ZN23QQuick3DGeometryPrivate15toComponentTypeEN8QSSGMesh4Mesh13ComponentTypeE@Base 6.2.2
 _ZN23QQuick3DGeometryPrivate16semanticFromNameERK10QByteArray@Base 6.2.2
 _ZN23QQuick3DGeometryPrivateC1Ev@Base 6.2.2
 _ZN23QQuick3DGeometryPrivateC2Ev@Base 6.2.2
 _ZN23QQuick3DQuaternionUtils11qt_metacallEN11QMetaObject4CallEiPPv@Base 6.2.2
 _ZN23QQuick3DQuaternionUtils11qt_metacastEPKc@Base 6.2.2
 _ZN23QQuick3DQuaternionUtils15fromEulerAnglesERK9QVector3D@Base 6.2.2
 _ZN23QQuick3DQuaternionUtils15fromEulerAnglesEfff@Base 6.2.2
 _ZN23QQuick3DQuaternionUtils16fromAxisAndAngleERK9QVector3Df@Base 6.2.2
 _ZN23QQuick3DQuaternionUtils16fromAxisAndAngleEffff@Base 6.2.2
 _ZN23QQuick3DQuaternionUtils16staticMetaObjectE@Base 6.2.2
 _ZN23QQuick3DQuaternionUtils17fromAxesAndAnglesERK9QVector3DfS2_f@Base 6.2.2
 _ZN23QQuick3DQuaternionUtils17fromAxesAndAnglesERK9QVector3DfS2_fS2_f@Base 6.2.2
 _ZN23QQuick3DQuaternionUtils6lookAtERK9QVector3DS2_S2_S2_@Base 6.2.2
 _ZN23QQuick3DQuaternionUtilsC1EP7QObject@Base 6.2.2
 _ZN23QQuick3DQuaternionUtilsC2EP7QObject@Base 6.2.2
 _ZN24QQuick3DDirectionalLight11qt_metacallEN11QMetaObject4CallEiPPv@Base 6.2.2
 _ZN24QQuick3DDirectionalLight11qt_metacastEPKc@Base 6.2.2
 _ZN24QQuick3DDirectionalLight16staticMetaObjectE@Base 6.2.2
 _ZN24QQuick3DDirectionalLight17updateSpatialNodeEP21QSSGRenderGraphObject@Base 6.2.2
 _ZN24QQuick3DDirectionalLightC1EP12QQuick3DNode@Base 6.2.2
 _ZN24QQuick3DDirectionalLightC2EP12QQuick3DNode@Base 6.2.2
 _ZN24QQuick3DSceneEnvironment10itemChangeEN14QQuick3DObject10ItemChangeERKNS0_14ItemChangeDataE@Base 6.2.2
 (subst)_ZN24QQuick3DSceneEnvironment11qmlEffectAtEP16QQmlListPropertyI14QQuick3DEffectE{qptrdiff}@Base 6.2.2
 _ZN24QQuick3DSceneEnvironment11qt_metacallEN11QMetaObject4CallEiPPv@Base 6.2.2
 _ZN24QQuick3DSceneEnvironment11qt_metacastEPKc@Base 6.2.2
 _ZN24QQuick3DSceneEnvironment11setAoDitherEb@Base 6.2.2
 _ZN24QQuick3DSceneEnvironment13aoBiasChangedEv@Base 6.2.2
 _ZN24QQuick3DSceneEnvironment13setAoDistanceEf@Base 6.2.2
 _ZN24QQuick3DSceneEnvironment13setAoSoftnessEf@Base 6.2.2
 _ZN24QQuick3DSceneEnvironment13setAoStrengthEf@Base 6.2.2
 _ZN24QQuick3DSceneEnvironment13setClearColorERK6QColor@Base 6.2.2
 _ZN24QQuick3DSceneEnvironment13setLightProbeEP15QQuick3DTexture@Base 6.2.2
 _ZN24QQuick3DSceneEnvironment14setTonemapModeENS_31QQuick3DEnvironmentTonemapModesE@Base 6.2.2
 _ZN24QQuick3DSceneEnvironment15aoDitherChangedEv@Base 6.2.2
 _ZN24QQuick3DSceneEnvironment15qmlAppendEffectEP16QQmlListPropertyI14QQuick3DEffectEPS1_@Base 6.2.2
 _ZN24QQuick3DSceneEnvironment15qmlClearEffectsEP16QQmlListPropertyI14QQuick3DEffectE@Base 6.2.2
 _ZN24QQuick3DSceneEnvironment15qmlEffectsCountEP16QQmlListPropertyI14QQuick3DEffectE@Base 6.2.2
 _ZN24QQuick3DSceneEnvironment15setAoSampleRateEi@Base 6.2.2
 _ZN24QQuick3DSceneEnvironment15setProbeHorizonEf@Base 6.2.2
 _ZN24QQuick3DSceneEnvironment16setProbeExposureEf@Base 6.2.2
 _ZN24QQuick3DSceneEnvironment16staticMetaObjectE@Base 6.2.2
 _ZN24QQuick3DSceneEnvironment17aoDistanceChangedEv@Base 6.2.2
 _ZN24QQuick3DSceneEnvironment17aoSoftnessChangedEv@Base 6.2.2
 _ZN24QQuick3DSceneEnvironment17aoStrengthChangedEv@Base 6.2.2
 _ZN24QQuick3DSceneEnvironment17clearColorChangedEv@Base 6.2.2
 _ZN24QQuick3DSceneEnvironment17lightProbeChangedEv@Base 6.2.2
 _ZN24QQuick3DSceneEnvironment17setBackgroundModeENS_34QQuick3DEnvironmentBackgroundTypesE@Base 6.2.2
 _ZN24QQuick3DSceneEnvironment17updateSpatialNodeEP21QSSGRenderGraphObject@Base 6.2.2
 _ZN24QQuick3DSceneEnvironment18tonemapModeChangedEv@Base 6.2.2
 _ZN24QQuick3DSceneEnvironment18updateSceneManagerEP20QQuick3DSceneManager@Base 6.2.2
 _ZN24QQuick3DSceneEnvironment19aoSampleRateChangedEv@Base 6.2.2
 _ZN24QQuick3DSceneEnvironment19probeHorizonChangedEv@Base 6.2.2
 _ZN24QQuick3DSceneEnvironment19setAntialiasingModeENS_31QQuick3DEnvironmentAAModeValuesE@Base 6.2.2
 _ZN24QQuick3DSceneEnvironment19setDepthTestEnabledEb@Base 6.2.2
 _ZN24QQuick3DSceneEnvironment19setProbeOrientationERK9QVector3D@Base 6.2.2
 _ZN24QQuick3DSceneEnvironment20probeExposureChangedEv@Base 6.2.2
 _ZN24QQuick3DSceneEnvironment20setTemporalAAEnabledEb@Base 6.2.2
 _ZN24QQuick3DSceneEnvironment21backgroundModeChangedEv@Base 6.2.2
 _ZN24QQuick3DSceneEnvironment21setTemporalAAStrengthEf@Base 6.2.2
 _ZN24QQuick3DSceneEnvironment22setAntialiasingQualityENS_34QQuick3DEnvironmentAAQualityValuesE@Base 6.2.2
 _ZN24QQuick3DSceneEnvironment22setDepthPrePassEnabledEb@Base 6.2.2
 _ZN24QQuick3DSceneEnvironment23antialiasingModeChangedEv@Base 6.2.2
 _ZN24QQuick3DSceneEnvironment23depthTestEnabledChangedEv@Base 6.2.2
 _ZN24QQuick3DSceneEnvironment23probeOrientationChangedEv@Base 6.2.2
 _ZN24QQuick3DSceneEnvironment24temporalAAEnabledChangedEv@Base 6.2.2
 _ZN24QQuick3DSceneEnvironment25temporalAAStrengthChangedEv@Base 6.2.2
 _ZN24QQuick3DSceneEnvironment26antialiasingQualityChangedEv@Base 6.2.2
 _ZN24QQuick3DSceneEnvironment26depthPrePassEnabledChangedEv@Base 6.2.2
 _ZN24QQuick3DSceneEnvironment7effectsEv@Base 6.2.2
 _ZN24QQuick3DSceneEnvironment9setAoBiasEf@Base 6.2.2
 _ZN24QQuick3DSceneEnvironmentC1EP14QQuick3DObject@Base 6.2.2
 _ZN24QQuick3DSceneEnvironmentC2EP14QQuick3DObject@Base 6.2.2
 _ZN24QQuick3DSceneEnvironmentD0Ev@Base 6.2.2
 _ZN24QQuick3DSceneEnvironmentD1Ev@Base 6.2.2
 _ZN24QQuick3DSceneEnvironmentD2Ev@Base 6.2.2
 _ZN25QQuick3DInstanceListEntry11qt_metacallEN11QMetaObject4CallEiPPv@Base 6.2.2
 _ZN25QQuick3DInstanceListEntry11qt_metacastEPKc@Base 6.2.2
 _ZN25QQuick3DInstanceListEntry11setPositionE9QVector3D@Base 6.2.2
 _ZN25QQuick3DInstanceListEntry11setRotationE11QQuaternion@Base 6.2.2
 _ZN25QQuick3DInstanceListEntry12colorChangedEv@Base 6.2.2
 _ZN25QQuick3DInstanceListEntry12scaleChangedEv@Base 6.2.2
 _ZN25QQuick3DInstanceListEntry13setCustomDataE9QVector4D@Base 6.2.2
 _ZN25QQuick3DInstanceListEntry15positionChangedEv@Base 6.2.2
 _ZN25QQuick3DInstanceListEntry15rotationChangedEv@Base 6.2.2
 _ZN25QQuick3DInstanceListEntry16setEulerRotationE9QVector3D@Base 6.2.2
 _ZN25QQuick3DInstanceListEntry16staticMetaObjectE@Base 6.2.2
 _ZN25QQuick3DInstanceListEntry17customDataChangedEv@Base 6.2.2
 _ZN25QQuick3DInstanceListEntry20eulerRotationChangedEv@Base 6.2.2
 _ZN25QQuick3DInstanceListEntry7changedEv@Base 6.2.2
 _ZN25QQuick3DInstanceListEntry8setColorE6QColor@Base 6.2.2
 _ZN25QQuick3DInstanceListEntry8setScaleE9QVector3D@Base 6.2.2
 _ZN25QQuick3DInstanceListEntryC1EP14QQuick3DObject@Base 6.2.2
 _ZN25QQuick3DInstanceListEntryC2EP14QQuick3DObject@Base 6.2.2
 _ZN25QQuick3DPerspectiveCamera10setClipFarEf@Base 6.2.2
 _ZN25QQuick3DPerspectiveCamera11qt_metacallEN11QMetaObject4CallEiPPv@Base 6.2.2
 _ZN25QQuick3DPerspectiveCamera11qt_metacastEPKc@Base 6.2.2
 _ZN25QQuick3DPerspectiveCamera11setClipNearEf@Base 6.2.2
 _ZN25QQuick3DPerspectiveCamera14clipFarChangedEv@Base 6.2.2
 _ZN25QQuick3DPerspectiveCamera14setFieldOfViewEf@Base 6.2.2
 _ZN25QQuick3DPerspectiveCamera15clipNearChangedEv@Base 6.2.2
 _ZN25QQuick3DPerspectiveCamera16staticMetaObjectE@Base 6.2.2
 _ZN25QQuick3DPerspectiveCamera17updateSpatialNodeEP21QSSGRenderGraphObject@Base 6.2.2
 _ZN25QQuick3DPerspectiveCamera18fieldOfViewChangedEv@Base 6.2.2
 _ZN25QQuick3DPerspectiveCamera25setFieldOfViewOrientationENS_22FieldOfViewOrientationE@Base 6.2.2
 _ZN25QQuick3DPerspectiveCamera29fieldOfViewOrientationChangedEv@Base 6.2.2
 _ZN25QQuick3DPerspectiveCameraC1EP12QQuick3DNode@Base 6.2.2
 _ZN25QQuick3DPerspectiveCameraC1ER19QQuick3DNodePrivateP12QQuick3DNode@Base 6.2.2
 _ZN25QQuick3DPerspectiveCameraC2EP12QQuick3DNode@Base 6.2.2
 _ZN25QQuick3DPerspectiveCameraC2ER19QQuick3DNodePrivateP12QQuick3DNode@Base 6.2.2
 _ZN25QQuick3DShaderUtilsBuffer11qt_metacallEN11QMetaObject4CallEiPPv@Base 6.2.2
 _ZN25QQuick3DShaderUtilsBuffer11qt_metacastEPKc@Base 6.2.2
 _ZN25QQuick3DShaderUtilsBuffer16mapTextureFormatENS_13TextureFormatE@Base 6.2.2
 _ZN25QQuick3DShaderUtilsBuffer16staticMetaObjectE@Base 6.2.2
 _ZN25QQuick3DShaderUtilsBuffer22mapRenderTextureFormatEN23QSSGRenderTextureFormat6FormatE@Base 6.2.2
 _ZN25QQuick3DShaderUtilsBuffer9setFormatENS_13TextureFormatE@Base 6.2.2
 _ZN25QQuick3DShaderUtilsShader11qt_metacallEN11QMetaObject4CallEiPPv@Base 6.2.2
 _ZN25QQuick3DShaderUtilsShader11qt_metacastEPKc@Base 6.2.2
 _ZN25QQuick3DShaderUtilsShader16staticMetaObjectE@Base 6.2.2
 _ZN26QQuick3DOrthographicCamera10setClipFarEf@Base 6.2.2
 _ZN26QQuick3DOrthographicCamera11qt_metacallEN11QMetaObject4CallEiPPv@Base 6.2.2
 _ZN26QQuick3DOrthographicCamera11qt_metacastEPKc@Base 6.2.2
 _ZN26QQuick3DOrthographicCamera11setClipNearEf@Base 6.2.2
 _ZN26QQuick3DOrthographicCamera14clipFarChangedEv@Base 6.2.2
 _ZN26QQuick3DOrthographicCamera15clipNearChangedEv@Base 6.2.2
 _ZN26QQuick3DOrthographicCamera16staticMetaObjectE@Base 6.2.2
 _ZN26QQuick3DOrthographicCamera17updateSpatialNodeEP21QSSGRenderGraphObject@Base 6.2.2
 _ZN26QQuick3DOrthographicCamera24setVerticalMagnificationEf@Base 6.2.2
 _ZN26QQuick3DOrthographicCamera26setHorizontalMagnificationEf@Base 6.2.2
 _ZN26QQuick3DOrthographicCamera28verticalMagnificationChangedEv@Base 6.2.2
 _ZN26QQuick3DOrthographicCamera30horizontalMagnificationChangedEv@Base 6.2.2
 _ZN26QQuick3DOrthographicCameraC1EP12QQuick3DNode@Base 6.2.2
 _ZN26QQuick3DOrthographicCameraC2EP12QQuick3DNode@Base 6.2.2
 _ZN26QQuick3DPrincipledMaterial10itemChangeEN14QQuick3DObject10ItemChangeERKNS0_14ItemChangeDataE@Base 6.2.2
 _ZN26QQuick3DPrincipledMaterial10setOpacityEf@Base 6.2.2
 _ZN26QQuick3DPrincipledMaterial11qt_metacallEN11QMetaObject4CallEiPPv@Base 6.2.2
 _ZN26QQuick3DPrincipledMaterial11qt_metacastEPKc@Base 6.2.2
 _ZN26QQuick3DPrincipledMaterial11setLightingENS_8LightingE@Base 6.2.2
 _ZN26QQuick3DPrincipledMaterial12markAllDirtyEv@Base 6.2.2
 _ZN26QQuick3DPrincipledMaterial12setAlphaModeENS_9AlphaModeE@Base 6.2.2
 _ZN26QQuick3DPrincipledMaterial12setBaseColorE6QColor@Base 6.2.2
 _ZN26QQuick3DPrincipledMaterial12setBlendModeENS_9BlendModeE@Base 6.2.2
 _ZN26QQuick3DPrincipledMaterial12setHeightMapEP15QQuick3DTexture@Base 6.2.2
 _ZN26QQuick3DPrincipledMaterial12setLineWidthEf@Base 6.2.2
 _ZN26QQuick3DPrincipledMaterial12setMetalnessEf@Base 6.2.2
 _ZN26QQuick3DPrincipledMaterial12setNormalMapEP15QQuick3DTexture@Base 6.2.2
 _ZN26QQuick3DPrincipledMaterial12setPointSizeEf@Base 6.2.2
 _ZN26QQuick3DPrincipledMaterial12setRoughnessEf@Base 6.2.2
 _ZN26QQuick3DPrincipledMaterial13setOpacityMapEP15QQuick3DTexture@Base 6.2.2
 _ZN26QQuick3DPrincipledMaterial14opacityChangedEf@Base 6.2.2
 _ZN26QQuick3DPrincipledMaterial14setAlphaCutoffEf@Base 6.2.2
 _ZN26QQuick3DPrincipledMaterial14setEmissiveMapEP15QQuick3DTexture@Base 6.2.2
 _ZN26QQuick3DPrincipledMaterial14setSpecularMapEP15QQuick3DTexture@Base 6.2.2
 _ZN26QQuick3DPrincipledMaterial15lightingChangedENS_8LightingE@Base 6.2.2
 _ZN26QQuick3DPrincipledMaterial15setBaseColorMapEP15QQuick3DTexture@Base 6.2.2
 _ZN26QQuick3DPrincipledMaterial15setHeightAmountEf@Base 6.2.2
 _ZN26QQuick3DPrincipledMaterial15setMetalnessMapEP15QQuick3DTexture@Base 6.2.2
 _ZN26QQuick3DPrincipledMaterial15setOcclusionMapEP15QQuick3DTexture@Base 6.2.2
 _ZN26QQuick3DPrincipledMaterial15setRoughnessMapEP15QQuick3DTexture@Base 6.2.2
 _ZN26QQuick3DPrincipledMaterial15setSpecularTintEf@Base 6.2.2
 _ZN26QQuick3DPrincipledMaterial16alphaModeChangedENS_9AlphaModeE@Base 6.2.2
 _ZN26QQuick3DPrincipledMaterial16baseColorChangedE6QColor@Base 6.2.2
 _ZN26QQuick3DPrincipledMaterial16blendModeChangedENS_9BlendModeE@Base 6.2.2
 _ZN26QQuick3DPrincipledMaterial16heightMapChangedEP15QQuick3DTexture@Base 6.2.2
 _ZN26QQuick3DPrincipledMaterial16lineWidthChangedEv@Base 6.2.2
 _ZN26QQuick3DPrincipledMaterial16metalnessChangedEf@Base 6.2.2
 _ZN26QQuick3DPrincipledMaterial16normalMapChangedEP15QQuick3DTexture@Base 6.2.2
 _ZN26QQuick3DPrincipledMaterial16pointSizeChangedEv@Base 6.2.2
 _ZN26QQuick3DPrincipledMaterial16roughnessChangedEf@Base 6.2.2
 _ZN26QQuick3DPrincipledMaterial16setHeightChannelEN16QQuick3DMaterial21TextureChannelMappingE@Base 6.2.2
 _ZN26QQuick3DPrincipledMaterial16staticMetaObjectE@Base 6.2.2
 _ZN26QQuick3DPrincipledMaterial17opacityMapChangedEP15QQuick3DTexture@Base 6.2.2
 _ZN26QQuick3DPrincipledMaterial17setEmissiveFactorE9QVector3D@Base 6.2.2
 _ZN26QQuick3DPrincipledMaterial17setNormalStrengthEf@Base 6.2.2
 _ZN26QQuick3DPrincipledMaterial17setOpacityChannelEN16QQuick3DMaterial21TextureChannelMappingE@Base 6.2.2
 _ZN26QQuick3DPrincipledMaterial17setSpecularAmountEf@Base 6.2.2
 _ZN26QQuick3DPrincipledMaterial17updateSpatialNodeEP21QSSGRenderGraphObject@Base 6.2.2
 _ZN26QQuick3DPrincipledMaterial18alphaCutoffChangedEf@Base 6.2.2
 _ZN26QQuick3DPrincipledMaterial18emissiveMapChangedEP15QQuick3DTexture@Base 6.2.2
 _ZN26QQuick3DPrincipledMaterial18setOcclusionAmountEf@Base 6.2.2
 _ZN26QQuick3DPrincipledMaterial18specularMapChangedEP15QQuick3DTexture@Base 6.2.2
 _ZN26QQuick3DPrincipledMaterial18updateSceneManagerEP20QQuick3DSceneManager@Base 6.2.2
 _ZN26QQuick3DPrincipledMaterial19baseColorMapChangedEP15QQuick3DTexture@Base 6.2.2
 _ZN26QQuick3DPrincipledMaterial19heightAmountChangedEf@Base 6.2.2
 _ZN26QQuick3DPrincipledMaterial19metalnessMapChangedEP15QQuick3DTexture@Base 6.2.2
 _ZN26QQuick3DPrincipledMaterial19occlusionMapChangedEP15QQuick3DTexture@Base 6.2.2
 _ZN26QQuick3DPrincipledMaterial19roughnessMapChangedEP15QQuick3DTexture@Base 6.2.2
 _ZN26QQuick3DPrincipledMaterial19setMetalnessChannelEN16QQuick3DMaterial21TextureChannelMappingE@Base 6.2.2
 _ZN26QQuick3DPrincipledMaterial19setOcclusionChannelEN16QQuick3DMaterial21TextureChannelMappingE@Base 6.2.2
 _ZN26QQuick3DPrincipledMaterial19setRoughnessChannelEN16QQuick3DMaterial21TextureChannelMappingE@Base 6.2.2
 _ZN26QQuick3DPrincipledMaterial19specularTintChangedEf@Base 6.2.2
 _ZN26QQuick3DPrincipledMaterial20heightChannelChangedEN16QQuick3DMaterial21TextureChannelMappingE@Base 6.2.2
 _ZN26QQuick3DPrincipledMaterial21emissiveFactorChangedE9QVector3D@Base 6.2.2
 _ZN26QQuick3DPrincipledMaterial21normalStrengthChangedEf@Base 6.2.2
 _ZN26QQuick3DPrincipledMaterial21opacityChannelChangedEN16QQuick3DMaterial21TextureChannelMappingE@Base 6.2.2
 _ZN26QQuick3DPrincipledMaterial21specularAmountChangedEf@Base 6.2.2
 _ZN26QQuick3DPrincipledMaterial22occlusionAmountChangedEf@Base 6.2.2
 _ZN26QQuick3DPrincipledMaterial22setMaxHeightMapSamplesEi@Base 6.2.2
 _ZN26QQuick3DPrincipledMaterial22setMinHeightMapSamplesEi@Base 6.2.2
 _ZN26QQuick3DPrincipledMaterial23metalnessChannelChangedEN16QQuick3DMaterial21TextureChannelMappingE@Base 6.2.2
 _ZN26QQuick3DPrincipledMaterial23occlusionChannelChangedEN16QQuick3DMaterial21TextureChannelMappingE@Base 6.2.2
 _ZN26QQuick3DPrincipledMaterial23roughnessChannelChangedEN16QQuick3DMaterial21TextureChannelMappingE@Base 6.2.2
 _ZN26QQuick3DPrincipledMaterial24setSpecularReflectionMapEP15QQuick3DTexture@Base 6.2.2
 _ZN26QQuick3DPrincipledMaterial26maxHeightMapSamplesChangedEi@Base 6.2.2
 _ZN26QQuick3DPrincipledMaterial26minHeightMapSamplesChangedEi@Base 6.2.2
 _ZN26QQuick3DPrincipledMaterial28specularReflectionMapChangedEP15QQuick3DTexture@Base 6.2.2
 _ZN26QQuick3DPrincipledMaterial9markDirtyENS_9DirtyTypeE@Base 6.2.2
 _ZN26QQuick3DPrincipledMaterialC1EP14QQuick3DObject@Base 6.2.2
 _ZN26QQuick3DPrincipledMaterialC2EP14QQuick3DObject@Base 6.2.2
 _ZN26QQuick3DPrincipledMaterialD0Ev@Base 6.2.2
 _ZN26QQuick3DPrincipledMaterialD1Ev@Base 6.2.2
 _ZN26QQuick3DPrincipledMaterialD2Ev@Base 6.2.2
 _ZN26QQuick3DRenderLayerHelpers21updateLayerNodeHelperERK16QQuick3DViewportR15QSSGRenderLayerRbS5_Rf@Base 6.2.2
 _ZN27QQuick3DQuaternionAnimation11qt_metacallEN11QMetaObject4CallEiPPv@Base 6.2.2
 _ZN27QQuick3DQuaternionAnimation11qt_metacastEPKc@Base 6.2.2
 _ZN27QQuick3DQuaternionAnimation11typeChangedENS_4TypeE@Base 6.2.2
 _ZN27QQuick3DQuaternionAnimation14setToXRotationEf@Base 6.2.2
 _ZN27QQuick3DQuaternionAnimation14setToYRotationEf@Base 6.2.2
 _ZN27QQuick3DQuaternionAnimation14setToZRotationEf@Base 6.2.2
 _ZN27QQuick3DQuaternionAnimation16setFromXRotationEf@Base 6.2.2
 _ZN27QQuick3DQuaternionAnimation16setFromYRotationEf@Base 6.2.2
 _ZN27QQuick3DQuaternionAnimation16setFromZRotationEf@Base 6.2.2
 _ZN27QQuick3DQuaternionAnimation16staticMetaObjectE@Base 6.2.2
 _ZN27QQuick3DQuaternionAnimation18toXRotationChangedEf@Base 6.2.2
 _ZN27QQuick3DQuaternionAnimation18toYRotationChangedEf@Base 6.2.2
 _ZN27QQuick3DQuaternionAnimation18toZRotationChangedEf@Base 6.2.2
 _ZN27QQuick3DQuaternionAnimation20fromXRotationChangedEf@Base 6.2.2
 _ZN27QQuick3DQuaternionAnimation20fromYRotationChangedEf@Base 6.2.2
 _ZN27QQuick3DQuaternionAnimation20fromZRotationChangedEf@Base 6.2.2
 _ZN27QQuick3DQuaternionAnimation5setToERK11QQuaternion@Base 6.2.2
 _ZN27QQuick3DQuaternionAnimation7setFromERK11QQuaternion@Base 6.2.2
 _ZN27QQuick3DQuaternionAnimation7setTypeENS_4TypeE@Base 6.2.2
 _ZN27QQuick3DQuaternionAnimationC1EP7QObject@Base 6.2.2
 _ZN27QQuick3DQuaternionAnimationC2EP7QObject@Base 6.2.2
 _ZN29QQuick3DShaderUtilsApplyValue11qt_metacallEN11QMetaObject4CallEiPPv@Base 6.2.2
 _ZN29QQuick3DShaderUtilsApplyValue11qt_metacastEPKc@Base 6.2.2
 _ZN29QQuick3DShaderUtilsApplyValue16staticMetaObjectE@Base 6.2.2
 (subst)_ZN29QQuick3DShaderUtilsRenderPass11qmlShaderAtEP16QQmlListPropertyI25QQuick3DShaderUtilsShaderE{qptrdiff}@Base 6.2.2
 _ZN29QQuick3DShaderUtilsRenderPass11qt_metacallEN11QMetaObject4CallEiPPv@Base 6.2.2
 _ZN29QQuick3DShaderUtilsRenderPass11qt_metacastEPKc@Base 6.2.2
 (subst)_ZN29QQuick3DShaderUtilsRenderPass12qmlCommandAtEP16QQmlListPropertyI32QQuick3DShaderUtilsRenderCommandE{qptrdiff}@Base 6.2.2
 _ZN29QQuick3DShaderUtilsRenderPass14qmlShaderClearEP16QQmlListPropertyI25QQuick3DShaderUtilsShaderE@Base 6.2.2
 _ZN29QQuick3DShaderUtilsRenderPass14qmlShaderCountEP16QQmlListPropertyI25QQuick3DShaderUtilsShaderE@Base 6.2.2
 _ZN29QQuick3DShaderUtilsRenderPass15qmlAppendShaderEP16QQmlListPropertyI25QQuick3DShaderUtilsShaderEPS1_@Base 6.2.2
 _ZN29QQuick3DShaderUtilsRenderPass15qmlCommandClearEP16QQmlListPropertyI32QQuick3DShaderUtilsRenderCommandE@Base 6.2.2
 _ZN29QQuick3DShaderUtilsRenderPass15qmlCommandCountEP16QQmlListPropertyI32QQuick3DShaderUtilsRenderCommandE@Base 6.2.2
 _ZN29QQuick3DShaderUtilsRenderPass16qmlAppendCommandEP16QQmlListPropertyI32QQuick3DShaderUtilsRenderCommandEPS1_@Base 6.2.2
 _ZN29QQuick3DShaderUtilsRenderPass16staticMetaObjectE@Base 6.2.2
 _ZN29QQuick3DShaderUtilsRenderPass7shadersEv@Base 6.2.2
 _ZN29QQuick3DShaderUtilsRenderPass8commandsEv@Base 6.2.2
 _ZN30QQuick3DShaderUtilsBufferInput11qt_metacallEN11QMetaObject4CallEiPPv@Base 6.2.2
 _ZN30QQuick3DShaderUtilsBufferInput11qt_metacastEPKc@Base 6.2.2
 _ZN30QQuick3DShaderUtilsBufferInput16staticMetaObjectE@Base 6.2.2
 _ZN31QQuick3DShaderUtilsTextureInput10setTextureEP15QQuick3DTexture@Base 6.2.2
 _ZN31QQuick3DShaderUtilsTextureInput11qt_metacallEN11QMetaObject4CallEiPPv@Base 6.2.2
 _ZN31QQuick3DShaderUtilsTextureInput11qt_metacastEPKc@Base 6.2.2
 _ZN31QQuick3DShaderUtilsTextureInput14enabledChangedEv@Base 6.2.2
 _ZN31QQuick3DShaderUtilsTextureInput14textureChangedEv@Base 6.2.2
 _ZN31QQuick3DShaderUtilsTextureInput16staticMetaObjectE@Base 6.2.2
 _ZN32QQuick3DShaderUtilsRenderCommand11qt_metacallEN11QMetaObject4CallEiPPv@Base 6.2.2
 _ZN32QQuick3DShaderUtilsRenderCommand11qt_metacastEPKc@Base 6.2.2
 _ZN32QQuick3DShaderUtilsRenderCommand16staticMetaObjectE@Base 6.2.2
 _ZN8QQuick3D18idealSurfaceFormatEi@Base 6.2.2
 _ZNK12QQuick3DNode10metaObjectEv@Base 6.2.2
 _ZNK12QQuick3DNode10parentNodeEv@Base 6.2.2
 _ZNK12QQuick3DNode10sceneScaleEv@Base 6.2.2
 _ZNK12QQuick3DNode11staticFlagsEv@Base 6.2.2
 _ZNK12QQuick3DNode12localOpacityEv@Base 6.2.2
 _ZNK12QQuick3DNode13eulerRotationEv@Base 6.2.2
 _ZNK12QQuick3DNode13scenePositionEv@Base 6.2.2
 _ZNK12QQuick3DNode13sceneRotationEv@Base 6.2.2
 _ZNK12QQuick3DNode14sceneTransformEv@Base 6.2.2
 _ZNK12QQuick3DNode17mapPositionToNodeEPKS_RK9QVector3D@Base 6.2.2
 _ZNK12QQuick3DNode18mapDirectionToNodeEPKS_RK9QVector3D@Base 6.2.2
 _ZNK12QQuick3DNode18mapPositionToSceneERK9QVector3D@Base 6.2.2
 _ZNK12QQuick3DNode19mapDirectionToSceneERK9QVector3D@Base 6.2.2
 _ZNK12QQuick3DNode19mapPositionFromNodeEPKS_RK9QVector3D@Base 6.2.2
 _ZNK12QQuick3DNode1xEv@Base 6.2.2
 _ZNK12QQuick3DNode1yEv@Base 6.2.2
 _ZNK12QQuick3DNode1zEv@Base 6.2.2
 _ZNK12QQuick3DNode20mapDirectionFromNodeEPKS_RK9QVector3D@Base 6.2.2
 _ZNK12QQuick3DNode20mapPositionFromSceneERK9QVector3D@Base 6.2.2
 _ZNK12QQuick3DNode21mapDirectionFromSceneERK9QVector3D@Base 6.2.2
 _ZNK12QQuick3DNode2upEv@Base 6.2.2
 _ZNK12QQuick3DNode5pivotEv@Base 6.2.2
 _ZNK12QQuick3DNode5rightEv@Base 6.2.2
 _ZNK12QQuick3DNode5scaleEv@Base 6.2.2
 _ZNK12QQuick3DNode7forwardEv@Base 6.2.2
 _ZNK12QQuick3DNode7visibleEv@Base 6.2.2
 _ZNK12QQuick3DNode8positionEv@Base 6.2.2
 _ZNK12QQuick3DNode8rotationEv@Base 6.2.2
 _ZNK13QQuick3DJoint10metaObjectEv@Base 6.2.2
 _ZNK13QQuick3DJoint12skeletonRootEv@Base 6.2.2
 _ZNK13QQuick3DJoint5indexEv@Base 6.2.2
 _ZNK13QQuick3DModel10instancingEv@Base 6.2.2
 _ZNK13QQuick3DModel10metaObjectEv@Base 6.2.2
 _ZNK13QQuick3DModel12castsShadowsEv@Base 6.2.2
 _ZNK13QQuick3DModel12instanceRootEv@Base 6.2.2
 _ZNK13QQuick3DModel15receivesShadowsEv@Base 6.2.2
 _ZNK13QQuick3DModel16inverseBindPosesEv@Base 6.2.2
 _ZNK13QQuick3DModel6boundsEv@Base 6.2.2
 _ZNK13QQuick3DModel6sourceEv@Base 6.2.2
 _ZNK13QQuick3DModel8geometryEv@Base 6.2.2
 _ZNK13QQuick3DModel8pickableEv@Base 6.2.2
 _ZNK13QQuick3DModel8skeletonEv@Base 6.2.2
 _ZNK13QQuick3DModel9depthBiasEv@Base 6.2.2
 _ZNK14QQuick3DCamera10metaObjectEv@Base 6.2.2
 _ZNK14QQuick3DCamera13mapToViewportERK9QVector3D@Base 6.2.2
 _ZNK14QQuick3DCamera15mapFromViewportERK9QVector3D@Base 6.2.2
 _ZNK14QQuick3DCamera21frustumCullingEnabledEv@Base 6.2.2
 _ZNK14QQuick3DEffect10metaObjectEv@Base 6.2.2
 _ZNK14QQuick3DLoader10metaObjectEv@Base 6.2.2
 _ZNK14QQuick3DLoader12asynchronousEv@Base 6.2.2
 _ZNK14QQuick3DLoader15sourceComponentEv@Base 6.2.2
 _ZNK14QQuick3DLoader4itemEv@Base 6.2.2
 _ZNK14QQuick3DLoader6activeEv@Base 6.2.2
 _ZNK14QQuick3DLoader6sourceEv@Base 6.2.2
 _ZNK14QQuick3DLoader6statusEv@Base 6.2.2
 _ZNK14QQuick3DLoader8progressEv@Base 6.2.2
 _ZNK14QQuick3DObject10childItemsEv@Base 6.2.2
 _ZNK14QQuick3DObject10metaObjectEv@Base 6.2.2
 _ZNK14QQuick3DObject10parentItemEv@Base 6.2.2
 _ZNK14QQuick3DObject19isComponentCompleteEv@Base 6.2.2
 _ZNK14QQuick3DObject5stateEv@Base 6.2.2
 _ZNK15QQuick3DTexture10metaObjectEv@Base 6.2.2
 _ZNK15QQuick3DTexture10rotationUVEv@Base 6.2.2
 _ZNK15QQuick3DTexture10sourceItemEv@Base 6.2.2
 _ZNK15QQuick3DTexture11mappingModeEv@Base 6.2.2
 _ZNK15QQuick3DTexture11textureDataEv@Base 6.2.2
 _ZNK15QQuick3DTexture14effectiveFlipVERK15QSSGRenderImage@Base 6.2.2
 _ZNK15QQuick3DTexture14verticalTilingEv@Base 6.2.2
 _ZNK15QQuick3DTexture15autoOrientationEv@Base 6.2.2
 _ZNK15QQuick3DTexture15generateMipmapsEv@Base 6.2.2
 _ZNK15QQuick3DTexture16horizontalTilingEv@Base 6.2.2
 _ZNK15QQuick3DTexture5flipUEv@Base 6.2.2
 _ZNK15QQuick3DTexture5flipVEv@Base 6.2.2
 _ZNK15QQuick3DTexture6pivotUEv@Base 6.2.2
 _ZNK15QQuick3DTexture6pivotVEv@Base 6.2.2
 _ZNK15QQuick3DTexture6scaleUEv@Base 6.2.2
 _ZNK15QQuick3DTexture6scaleVEv@Base 6.2.2
 _ZNK15QQuick3DTexture6sourceEv@Base 6.2.2
 _ZNK15QQuick3DTexture7indexUVEv@Base 6.2.2
 _ZNK15QQuick3DTexture9magFilterEv@Base 6.2.2
 _ZNK15QQuick3DTexture9minFilterEv@Base 6.2.2
 _ZNK15QQuick3DTexture9mipFilterEv@Base 6.2.2
 _ZNK15QQuick3DTexture9positionUEv@Base 6.2.2
 _ZNK15QQuick3DTexture9positionVEv@Base 6.2.2
 _ZNK16QQuick3DGeometry10metaObjectEv@Base 6.2.2
 _ZNK16QQuick3DGeometry10vertexDataEv@Base 6.2.2
 _ZNK16QQuick3DGeometry13primitiveTypeEv@Base 6.2.2
 _ZNK16QQuick3DGeometry14attributeCountEv@Base 6.2.2
 _ZNK16QQuick3DGeometry6strideEv@Base 6.2.2
 _ZNK16QQuick3DGeometry9attributeEi@Base 6.2.2
 _ZNK16QQuick3DGeometry9boundsMaxEv@Base 6.2.2
 _ZNK16QQuick3DGeometry9boundsMinEv@Base 6.2.2
 _ZNK16QQuick3DGeometry9indexDataEv@Base 6.2.2
 _ZNK16QQuick3DMaterial10lightProbeEv@Base 6.2.2
 _ZNK16QQuick3DMaterial10metaObjectEv@Base 6.2.2
 _ZNK16QQuick3DMaterial13depthDrawModeEv@Base 6.2.2
 _ZNK16QQuick3DMaterial8cullModeEv@Base 6.2.2
 _ZNK16QQuick3DRepeater10metaObjectEv@Base 6.2.2
 _ZNK16QQuick3DRepeater5countEv@Base 6.2.2
 _ZNK16QQuick3DRepeater5modelEv@Base 6.2.2
 _ZNK16QQuick3DRepeater8delegateEv@Base 6.2.2
 _ZNK16QQuick3DRepeater8objectAtEi@Base 6.2.2
 _ZNK16QQuick3DSkeleton10metaObjectEv@Base 6.2.2
 _ZNK16QQuick3DViewport10metaObjectEv@Base 6.2.2
 _ZNK16QQuick3DViewport10rayPickAllERK9QVector3DS2_@Base 6.2.2
 _ZNK16QQuick3DViewport10renderModeEv@Base 6.2.2
 _ZNK16QQuick3DViewport11environmentEv@Base 6.2.2
 _ZNK16QQuick3DViewport11getRendererEv@Base 6.2.2
 _ZNK16QQuick3DViewport11importSceneEv@Base 6.2.2
 _ZNK16QQuick3DViewport11renderStatsEv@Base 6.2.2
 _ZNK16QQuick3DViewport12internalPickEP13QPointerEventRK9QVector3DS4_@Base 6.2.2
 _ZNK16QQuick3DViewport12mapTo3DSceneERK9QVector3D@Base 6.2.2
 _ZNK16QQuick3DViewport14checkIsVisibleEv@Base 6.2.2
 _ZNK16QQuick3DViewport14createRendererEv@Base 6.2.2
 _ZNK16QQuick3DViewport14mapFrom3DSceneERK9QVector3D@Base 6.2.2
 _ZNK16QQuick3DViewport15textureProviderEv@Base 6.2.2
 _ZNK16QQuick3DViewport17isTextureProviderEv@Base 6.2.2
 _ZNK16QQuick3DViewport17processPickResultERK20QSSGRenderPickResult@Base 6.2.2
 _ZNK16QQuick3DViewport4pickEff@Base 6.2.2
 _ZNK16QQuick3DViewport5sceneEv@Base 6.2.2
 _ZNK16QQuick3DViewport6cameraEv@Base 6.2.2
 _ZNK16QQuick3DViewport7pickAllEff@Base 6.2.2
 _ZNK16QQuick3DViewport7rayPickERK9QVector3DS2_@Base 6.2.2
 _ZNK17QQuick3DSpotLight10linearFadeEv@Base 6.2.2
 _ZNK17QQuick3DSpotLight10metaObjectEv@Base 6.2.2
 _ZNK17QQuick3DSpotLight12constantFadeEv@Base 6.2.2
 _ZNK17QQuick3DSpotLight13quadraticFadeEv@Base 6.2.2
 _ZNK17QQuick3DSpotLight14innerConeAngleEv@Base 6.2.2
 _ZNK17QQuick3DSpotLight9coneAngleEv@Base 6.2.2
 _ZNK18QQuick3DInstancing10metaObjectEv@Base 6.2.2
 _ZNK18QQuick3DInstancing15hasTransparencyEv@Base 6.2.2
 _ZNK18QQuick3DInstancing19depthSortingEnabledEv@Base 6.2.2
 _ZNK18QQuick3DInstancing21instanceCountOverrideEv@Base 6.2.2
 _ZNK18QQuick3DPickResult10uvPositionEv@Base 6.2.2
 _ZNK18QQuick3DPickResult11sceneNormalEv@Base 6.2.2
 _ZNK18QQuick3DPickResult13scenePositionEv@Base 6.2.2
 _ZNK18QQuick3DPickResult6normalEv@Base 6.2.2
 _ZNK18QQuick3DPickResult8distanceEv@Base 6.2.2
 _ZNK18QQuick3DPickResult8positionEv@Base 6.2.2
 _ZNK18QQuick3DPickResult9objectHitEv@Base 6.2.2
 _ZNK18QQuick3DPointLight10linearFadeEv@Base 6.2.2
 _ZNK18QQuick3DPointLight10metaObjectEv@Base 6.2.2
 _ZNK18QQuick3DPointLight12constantFadeEv@Base 6.2.2
 _ZNK18QQuick3DPointLight13quadraticFadeEv@Base 6.2.2
 _ZNK19QQuick3DMorphTarget10attributesEv@Base 6.2.2
 _ZNK19QQuick3DMorphTarget10metaObjectEv@Base 6.2.2
 _ZNK19QQuick3DMorphTarget6weightEv@Base 6.2.2
 _ZNK19QQuick3DNodePrivate24isDirectionRelatedSignalERK11QMetaMethod@Base 6.2.2
 _ZNK19QQuick3DNodePrivate29isSceneTransformRelatedSignalERK11QMetaMethod@Base 6.2.2
 _ZNK19QQuick3DRenderStats10metaObjectEv@Base 6.2.2
 _ZNK19QQuick3DRenderStats10renderTimeEv@Base 6.2.2
 _ZNK19QQuick3DRenderStats12maxFrameTimeEv@Base 6.2.2
 _ZNK19QQuick3DRenderStats17renderPrepareTimeEv@Base 6.2.2
 _ZNK19QQuick3DRenderStats3fpsEv@Base 6.2.2
 _ZNK19QQuick3DRenderStats8syncTimeEv@Base 6.2.2
 _ZNK19QQuick3DRenderStats9frameTimeEv@Base 6.2.2
 _ZNK19QQuick3DRenderStats9timestampEv@Base 6.2.2
 _ZNK19QQuick3DTextureData10metaObjectEv@Base 6.2.2
 _ZNK19QQuick3DTextureData11textureDataEv@Base 6.2.2
 _ZNK19QQuick3DTextureData15hasTransparencyEv@Base 6.2.2
 _ZNK19QQuick3DTextureData4sizeEv@Base 6.2.2
 _ZNK19QQuick3DTextureData6formatEv@Base 6.2.2
 _ZNK20QQuick3DCustomCamera10metaObjectEv@Base 6.2.2
 _ZNK20QQuick3DCustomCamera10projectionEv@Base 6.2.2
 _ZNK20QQuick3DInstanceList10metaObjectEv@Base 6.2.2
 _ZNK20QQuick3DSceneManager10lookUpNodeEPK21QSSGRenderGraphObject@Base 6.2.2
 _ZNK20QQuick3DSceneManager10metaObjectEv@Base 6.2.2
 _ZNK21QQuick3DAbstractLight10brightnessEv@Base 6.2.2
 _ZNK21QQuick3DAbstractLight10metaObjectEv@Base 6.2.2
 _ZNK21QQuick3DAbstractLight10shadowBiasEv@Base 6.2.2
 _ZNK21QQuick3DAbstractLight11castsShadowEv@Base 6.2.2
 _ZNK21QQuick3DAbstractLight12ambientColorEv@Base 6.2.2
 _ZNK21QQuick3DAbstractLight12shadowFactorEv@Base 6.2.2
 _ZNK21QQuick3DAbstractLight12shadowFilterEv@Base 6.2.2
 _ZNK21QQuick3DAbstractLight12shadowMapFarEv@Base 6.2.2
 _ZNK21QQuick3DAbstractLight16shadowMapQualityEv@Base 6.2.2
 _ZNK21QQuick3DAbstractLight5colorEv@Base 6.2.2
 _ZNK21QQuick3DAbstractLight5scopeEv@Base 6.2.2
 _ZNK21QQuick3DFrustumCamera10metaObjectEv@Base 6.2.2
 _ZNK21QQuick3DFrustumCamera3topEv@Base 6.2.2
 _ZNK21QQuick3DFrustumCamera4leftEv@Base 6.2.2
 _ZNK21QQuick3DFrustumCamera5rightEv@Base 6.2.2
 _ZNK21QQuick3DFrustumCamera6bottomEv@Base 6.2.2
 _ZNK21QQuick3DObjectPrivate13dirtyToStringEv@Base 6.2.2
 _ZNK21QQuick3DObjectPrivate20paintOrderChildItemsEv@Base 6.2.2
 _ZNK21QQuick3DObjectPrivate5stateEv@Base 6.2.2
 _ZNK22QQuick3DCustomMaterial10metaObjectEv@Base 6.2.2
 _ZNK22QQuick3DCustomMaterial11alwaysDirtyEv@Base 6.2.2
 _ZNK22QQuick3DCustomMaterial11shadingModeEv@Base 6.2.2
 _ZNK22QQuick3DCustomMaterial12vertexShaderEv@Base 6.2.2
 _ZNK22QQuick3DCustomMaterial14fragmentShaderEv@Base 6.2.2
 _ZNK22QQuick3DCustomMaterial18dynamicTextureMapsEv@Base 6.2.2
 _ZNK22QQuick3DCustomMaterial8dstBlendEv@Base 6.2.2
 _ZNK22QQuick3DCustomMaterial8srcBlendEv@Base 6.2.2
 _ZNK22QQuick3DCustomMaterial9lineWidthEv@Base 6.2.2
 _ZNK22QQuick3DFileInstancing10metaObjectEv@Base 6.2.2
 _ZNK22QQuick3DFileInstancing6sourceEv@Base 6.2.2
 _ZNK23QQuick3DDefaultMaterial10bumpAmountEv@Base 6.2.2
 _ZNK23QQuick3DDefaultMaterial10diffuseMapEv@Base 6.2.2
 _ZNK23QQuick3DDefaultMaterial10metaObjectEv@Base 6.2.2
 _ZNK23QQuick3DDefaultMaterial10opacityMapEv@Base 6.2.2
 _ZNK23QQuick3DDefaultMaterial11emissiveMapEv@Base 6.2.2
 _ZNK23QQuick3DDefaultMaterial11specularMapEv@Base 6.2.2
 _ZNK23QQuick3DDefaultMaterial12diffuseColorEv@Base 6.2.2
 _ZNK23QQuick3DDefaultMaterial12fresnelPowerEv@Base 6.2.2
 _ZNK23QQuick3DDefaultMaterial12roughnessMapEv@Base 6.2.2
 _ZNK23QQuick3DDefaultMaterial12specularTintEv@Base 6.2.2
 _ZNK23QQuick3DDefaultMaterial13specularModelEv@Base 6.2.2
 _ZNK23QQuick3DDefaultMaterial14emissiveFactorEv@Base 6.2.2
 _ZNK23QQuick3DDefaultMaterial14opacityChannelEv@Base 6.2.2
 _ZNK23QQuick3DDefaultMaterial14specularAmountEv@Base 6.2.2
 _ZNK23QQuick3DDefaultMaterial15translucencyMapEv@Base 6.2.2
 _ZNK23QQuick3DDefaultMaterial16diffuseLightWrapEv@Base 6.2.2
 _ZNK23QQuick3DDefaultMaterial16roughnessChannelEv@Base 6.2.2
 _ZNK23QQuick3DDefaultMaterial17indexOfRefractionEv@Base 6.2.2
 _ZNK23QQuick3DDefaultMaterial17specularRoughnessEv@Base 6.2.2
 _ZNK23QQuick3DDefaultMaterial18translucentFalloffEv@Base 6.2.2
 _ZNK23QQuick3DDefaultMaterial19translucencyChannelEv@Base 6.2.2
 _ZNK23QQuick3DDefaultMaterial19vertexColorsEnabledEv@Base 6.2.2
 _ZNK23QQuick3DDefaultMaterial21specularReflectionMapEv@Base 6.2.2
 _ZNK23QQuick3DDefaultMaterial7bumpMapEv@Base 6.2.2
 _ZNK23QQuick3DDefaultMaterial7opacityEv@Base 6.2.2
 _ZNK23QQuick3DDefaultMaterial8lightingEv@Base 6.2.2
 _ZNK23QQuick3DDefaultMaterial9blendModeEv@Base 6.2.2
 _ZNK23QQuick3DDefaultMaterial9lineWidthEv@Base 6.2.2
 _ZNK23QQuick3DDefaultMaterial9normalMapEv@Base 6.2.2
 _ZNK23QQuick3DDefaultMaterial9pointSizeEv@Base 6.2.2
 _ZNK23QQuick3DQuaternionUtils10metaObjectEv@Base 6.2.2
 _ZNK24QQuick3DDirectionalLight10metaObjectEv@Base 6.2.2
 _ZNK24QQuick3DSceneEnvironment10aoDistanceEv@Base 6.2.2
 _ZNK24QQuick3DSceneEnvironment10aoSoftnessEv@Base 6.2.2
 _ZNK24QQuick3DSceneEnvironment10aoStrengthEv@Base 6.2.2
 _ZNK24QQuick3DSceneEnvironment10clearColorEv@Base 6.2.2
 _ZNK24QQuick3DSceneEnvironment10lightProbeEv@Base 6.2.2
 _ZNK24QQuick3DSceneEnvironment10metaObjectEv@Base 6.2.2
 _ZNK24QQuick3DSceneEnvironment11tonemapModeEv@Base 6.2.2
 _ZNK24QQuick3DSceneEnvironment12aoSampleRateEv@Base 6.2.2
 _ZNK24QQuick3DSceneEnvironment12probeHorizonEv@Base 6.2.2
 _ZNK24QQuick3DSceneEnvironment13probeExposureEv@Base 6.2.2
 _ZNK24QQuick3DSceneEnvironment14backgroundModeEv@Base 6.2.2
 _ZNK24QQuick3DSceneEnvironment16antialiasingModeEv@Base 6.2.2
 _ZNK24QQuick3DSceneEnvironment16depthTestEnabledEv@Base 6.2.2
 _ZNK24QQuick3DSceneEnvironment16probeOrientationEv@Base 6.2.2
 _ZNK24QQuick3DSceneEnvironment17temporalAAEnabledEv@Base 6.2.2
 _ZNK24QQuick3DSceneEnvironment18temporalAAStrengthEv@Base 6.2.2
 _ZNK24QQuick3DSceneEnvironment19antialiasingQualityEv@Base 6.2.2
 _ZNK24QQuick3DSceneEnvironment19depthPrePassEnabledEv@Base 6.2.2
 _ZNK24QQuick3DSceneEnvironment6aoBiasEv@Base 6.2.2
 _ZNK24QQuick3DSceneEnvironment8aoDitherEv@Base 6.2.2
 _ZNK25QQuick3DInstanceListEntry10metaObjectEv@Base 6.2.2
 _ZNK25QQuick3DPerspectiveCamera10metaObjectEv@Base 6.2.2
 _ZNK25QQuick3DPerspectiveCamera11fieldOfViewEv@Base 6.2.2
 _ZNK25QQuick3DPerspectiveCamera22fieldOfViewOrientationEv@Base 6.2.2
 _ZNK25QQuick3DPerspectiveCamera7clipFarEv@Base 6.2.2
 _ZNK25QQuick3DPerspectiveCamera8clipNearEv@Base 6.2.2
 _ZNK25QQuick3DShaderUtilsBuffer10metaObjectEv@Base 6.2.2
 _ZNK25QQuick3DShaderUtilsBuffer6formatEv@Base 6.2.2
 _ZNK25QQuick3DShaderUtilsShader10metaObjectEv@Base 6.2.2
 _ZNK26QQuick3DOrthographicCamera10metaObjectEv@Base 6.2.2
 _ZNK26QQuick3DOrthographicCamera21verticalMagnificationEv@Base 6.2.2
 _ZNK26QQuick3DOrthographicCamera23horizontalMagnificationEv@Base 6.2.2
 _ZNK26QQuick3DOrthographicCamera7clipFarEv@Base 6.2.2
 _ZNK26QQuick3DOrthographicCamera8clipNearEv@Base 6.2.2
 _ZNK26QQuick3DPrincipledMaterial10metaObjectEv@Base 6.2.2
 _ZNK26QQuick3DPrincipledMaterial10opacityMapEv@Base 6.2.2
 _ZNK26QQuick3DPrincipledMaterial11alphaCutoffEv@Base 6.2.2
 _ZNK26QQuick3DPrincipledMaterial11emissiveMapEv@Base 6.2.2
 _ZNK26QQuick3DPrincipledMaterial11specularMapEv@Base 6.2.2
 _ZNK26QQuick3DPrincipledMaterial12baseColorMapEv@Base 6.2.2
 _ZNK26QQuick3DPrincipledMaterial12heightAmountEv@Base 6.2.2
 _ZNK26QQuick3DPrincipledMaterial12metalnessMapEv@Base 6.2.2
 _ZNK26QQuick3DPrincipledMaterial12occlusionMapEv@Base 6.2.2
 _ZNK26QQuick3DPrincipledMaterial12roughnessMapEv@Base 6.2.2
 _ZNK26QQuick3DPrincipledMaterial12specularTintEv@Base 6.2.2
 _ZNK26QQuick3DPrincipledMaterial13heightChannelEv@Base 6.2.2
 _ZNK26QQuick3DPrincipledMaterial14emissiveFactorEv@Base 6.2.2
 _ZNK26QQuick3DPrincipledMaterial14normalStrengthEv@Base 6.2.2
 _ZNK26QQuick3DPrincipledMaterial14opacityChannelEv@Base 6.2.2
 _ZNK26QQuick3DPrincipledMaterial14specularAmountEv@Base 6.2.2
 _ZNK26QQuick3DPrincipledMaterial15occlusionAmountEv@Base 6.2.2
 _ZNK26QQuick3DPrincipledMaterial16metalnessChannelEv@Base 6.2.2
 _ZNK26QQuick3DPrincipledMaterial16occlusionChannelEv@Base 6.2.2
 _ZNK26QQuick3DPrincipledMaterial16roughnessChannelEv@Base 6.2.2
 _ZNK26QQuick3DPrincipledMaterial19maxHeightMapSamplesEv@Base 6.2.2
 _ZNK26QQuick3DPrincipledMaterial19minHeightMapSamplesEv@Base 6.2.2
 _ZNK26QQuick3DPrincipledMaterial21specularReflectionMapEv@Base 6.2.2
 _ZNK26QQuick3DPrincipledMaterial7opacityEv@Base 6.2.2
 _ZNK26QQuick3DPrincipledMaterial8lightingEv@Base 6.2.2
 _ZNK26QQuick3DPrincipledMaterial9alphaModeEv@Base 6.2.2
 _ZNK26QQuick3DPrincipledMaterial9baseColorEv@Base 6.2.2
 _ZNK26QQuick3DPrincipledMaterial9blendModeEv@Base 6.2.2
 _ZNK26QQuick3DPrincipledMaterial9heightMapEv@Base 6.2.2
 _ZNK26QQuick3DPrincipledMaterial9lineWidthEv@Base 6.2.2
 _ZNK26QQuick3DPrincipledMaterial9metalnessEv@Base 6.2.2
 _ZNK26QQuick3DPrincipledMaterial9normalMapEv@Base 6.2.2
 _ZNK26QQuick3DPrincipledMaterial9pointSizeEv@Base 6.2.2
 _ZNK26QQuick3DPrincipledMaterial9roughnessEv@Base 6.2.2
 _ZNK27QQuick3DQuaternionAnimation10metaObjectEv@Base 6.2.2
 _ZNK27QQuick3DQuaternionAnimation11toXRotationEv@Base 6.2.2
 _ZNK27QQuick3DQuaternionAnimation11toYRotationEv@Base 6.2.2
 _ZNK27QQuick3DQuaternionAnimation11toZRotationEv@Base 6.2.2
 _ZNK27QQuick3DQuaternionAnimation13fromXRotationEv@Base 6.2.2
 _ZNK27QQuick3DQuaternionAnimation13fromYRotationEv@Base 6.2.2
 _ZNK27QQuick3DQuaternionAnimation13fromZRotationEv@Base 6.2.2
 _ZNK27QQuick3DQuaternionAnimation2toEv@Base 6.2.2
 _ZNK27QQuick3DQuaternionAnimation4fromEv@Base 6.2.2
 _ZNK27QQuick3DQuaternionAnimation4typeEv@Base 6.2.2
 _ZNK29QQuick3DShaderUtilsApplyValue10metaObjectEv@Base 6.2.2
 _ZNK29QQuick3DShaderUtilsRenderPass10metaObjectEv@Base 6.2.2
 _ZNK30QQuick3DShaderUtilsBufferInput10metaObjectEv@Base 6.2.2
 _ZNK31QQuick3DShaderUtilsTextureInput10metaObjectEv@Base 6.2.2
 _ZNK32QQuick3DShaderUtilsRenderCommand10metaObjectEv@Base 6.2.2
 (optional=templinst)_ZNSt8_Rb_treeIK10QByteArraySt4pairIS1_N16QQuick3DGeometry9Attribute8SemanticEESt10_Select1stIS6_ESt4lessIS1_ESaIS6_EE16_M_insert_uniqueIS6_EES2_ISt17_Rb_tree_iteratorIS6_EbEOT_@Base 6.2.2
 _ZTI12QQuick3DNode@Base 6.2.2
 _ZTI13QQuick3DJoint@Base 6.2.2
 _ZTI13QQuick3DModel@Base 6.2.2
 _ZTI14QQuick3DCamera@Base 6.2.2
 _ZTI14QQuick3DEffect@Base 6.2.2
 _ZTI14QQuick3DLoader@Base 6.2.2
 _ZTI14QQuick3DObject@Base 6.2.2
 _ZTI14QSSGRenderNode@Base 6.2.2
 _ZTI15QQuick3DTexture@Base 6.2.2
 _ZTI16QQuick3DGeometry@Base 6.2.2
 _ZTI16QQuick3DMaterial@Base 6.2.2
 _ZTI16QQuick3DRepeater@Base 6.2.2
 _ZTI16QQuick3DSkeleton@Base 6.2.2
 _ZTI16QQuick3DViewport@Base 6.2.2
 _ZTI17QQuick3DSpotLight@Base 6.2.2
 _ZTI18QQuick3DInstancing@Base 6.2.2
 _ZTI18QQuick3DPointLight@Base 6.2.2
 _ZTI19QQuick3DMorphTarget@Base 6.2.2
 _ZTI19QQuick3DNodePrivate@Base 6.2.2
 _ZTI19QQuick3DRenderStats@Base 6.2.2
 _ZTI19QQuick3DTextureData@Base 6.2.2
 _ZTI20QQuick3DCustomCamera@Base 6.2.2
 _ZTI20QQuick3DInstanceList@Base 6.2.2
 _ZTI20QQuick3DSceneManager@Base 6.2.2
 _ZTI21QQuick3DAbstractLight@Base 6.2.2
 _ZTI21QQuick3DFrustumCamera@Base 6.2.2
 _ZTI21QQuick3DObjectPrivate@Base 6.2.2
 _ZTI22QQuick3DCustomMaterial@Base 6.2.2
 _ZTI22QQuick3DFileInstancing@Base 6.2.2
 _ZTI23QQuick3DDefaultMaterial@Base 6.2.2
 _ZTI23QQuick3DGeometryPrivate@Base 6.2.2
 _ZTI23QQuick3DQuaternionUtils@Base 6.2.2
 _ZTI23QSSGRenderInstanceTable@Base 6.2.2
 _ZTI24QQuick3DDirectionalLight@Base 6.2.2
 _ZTI24QQuick3DSceneEnvironment@Base 6.2.2
 _ZTI25QQuick3DInstanceListEntry@Base 6.2.2
 _ZTI25QQuick3DPerspectiveCamera@Base 6.2.2
 _ZTI25QQuick3DShaderUtilsBuffer@Base 6.2.2
 _ZTI25QQuick3DShaderUtilsShader@Base 6.2.2
 _ZTI26QQuick3DOrthographicCamera@Base 6.2.2
 _ZTI26QQuick3DPrincipledMaterial@Base 6.2.2
 _ZTI27QQuick3DQuaternionAnimation@Base 6.2.2
 _ZTI29QQuick3DShaderUtilsApplyValue@Base 6.2.2
 _ZTI29QQuick3DShaderUtilsRenderPass@Base 6.2.2
 _ZTI30QQuick3DShaderUtilsBufferInput@Base 6.2.2
 _ZTI31QQuick3DShaderUtilsTextureInput@Base 6.2.2
 _ZTI32QQuick3DShaderUtilsRenderCommand@Base 6.2.2
 _ZTIFP7QObjectP10QQmlEngineP9QJSEngineE@Base 6.2.2
 _ZTIPFP7QObjectP10QQmlEngineP9QJSEngineE@Base 6.2.2
 _ZTIZN9QMetaType17registerConverterI5QListI10QMatrix4x4E9QIterableI13QMetaSequenceEN9QtPrivate33QSequentialIterableConvertFunctorIS3_EEEEbT1_EUlPKvPvE_@Base 6.2.2
 _ZTIZN9QMetaType17registerConverterI5QListI18QQuick3DPickResultE9QIterableI13QMetaSequenceEN9QtPrivate33QSequentialIterableConvertFunctorIS3_EEEEbT1_EUlPKvPvE_@Base 6.2.2
 _ZTIZN9QMetaType19registerMutableViewI5QListI10QMatrix4x4E9QIterableI13QMetaSequenceEN9QtPrivate37QSequentialIterableMutableViewFunctorIS3_EEEEbT1_EUlPvSB_E_@Base 6.2.2
 _ZTIZN9QMetaType19registerMutableViewI5QListI18QQuick3DPickResultE9QIterableI13QMetaSequenceEN9QtPrivate37QSequentialIterableMutableViewFunctorIS3_EEEEbT1_EUlPvSB_E_@Base 6.2.2
 _ZTS12QQuick3DNode@Base 6.2.2
 _ZTS13QQuick3DJoint@Base 6.2.2
 _ZTS13QQuick3DModel@Base 6.2.2
 _ZTS14QQuick3DCamera@Base 6.2.2
 _ZTS14QQuick3DEffect@Base 6.2.2
 _ZTS14QQuick3DLoader@Base 6.2.2
 _ZTS14QQuick3DObject@Base 6.2.2
 _ZTS14QSSGRenderNode@Base 6.2.2
 _ZTS15QQuick3DTexture@Base 6.2.2
 _ZTS16QQuick3DGeometry@Base 6.2.2
 _ZTS16QQuick3DMaterial@Base 6.2.2
 _ZTS16QQuick3DRepeater@Base 6.2.2
 _ZTS16QQuick3DSkeleton@Base 6.2.2
 _ZTS16QQuick3DViewport@Base 6.2.2
 _ZTS17QQuick3DSpotLight@Base 6.2.2
 _ZTS18QQuick3DInstancing@Base 6.2.2
 _ZTS18QQuick3DPointLight@Base 6.2.2
 _ZTS19QQuick3DMorphTarget@Base 6.2.2
 _ZTS19QQuick3DNodePrivate@Base 6.2.2
 _ZTS19QQuick3DRenderStats@Base 6.2.2
 _ZTS19QQuick3DTextureData@Base 6.2.2
 _ZTS20QQuick3DCustomCamera@Base 6.2.2
 _ZTS20QQuick3DInstanceList@Base 6.2.2
 _ZTS20QQuick3DSceneManager@Base 6.2.2
 _ZTS21QQuick3DAbstractLight@Base 6.2.2
 _ZTS21QQuick3DFrustumCamera@Base 6.2.2
 _ZTS21QQuick3DObjectPrivate@Base 6.2.2
 _ZTS22QQuick3DCustomMaterial@Base 6.2.2
 _ZTS22QQuick3DFileInstancing@Base 6.2.2
 _ZTS23QQuick3DDefaultMaterial@Base 6.2.2
 _ZTS23QQuick3DGeometryPrivate@Base 6.2.2
 _ZTS23QQuick3DQuaternionUtils@Base 6.2.2
 _ZTS23QSSGRenderInstanceTable@Base 6.2.2
 _ZTS24QQuick3DDirectionalLight@Base 6.2.2
 _ZTS24QQuick3DSceneEnvironment@Base 6.2.2
 _ZTS25QQuick3DInstanceListEntry@Base 6.2.2
 _ZTS25QQuick3DPerspectiveCamera@Base 6.2.2
 _ZTS25QQuick3DShaderUtilsBuffer@Base 6.2.2
 _ZTS25QQuick3DShaderUtilsShader@Base 6.2.2
 _ZTS26QQuick3DOrthographicCamera@Base 6.2.2
 _ZTS26QQuick3DPrincipledMaterial@Base 6.2.2
 _ZTS27QQuick3DQuaternionAnimation@Base 6.2.2
 _ZTS29QQuick3DShaderUtilsApplyValue@Base 6.2.2
 _ZTS29QQuick3DShaderUtilsRenderPass@Base 6.2.2
 _ZTS30QQuick3DShaderUtilsBufferInput@Base 6.2.2
 _ZTS31QQuick3DShaderUtilsTextureInput@Base 6.2.2
 _ZTS32QQuick3DShaderUtilsRenderCommand@Base 6.2.2
 _ZTSFP7QObjectP10QQmlEngineP9QJSEngineE@Base 6.2.2
 _ZTSPFP7QObjectP10QQmlEngineP9QJSEngineE@Base 6.2.2
 _ZTSZN9QMetaType17registerConverterI5QListI10QMatrix4x4E9QIterableI13QMetaSequenceEN9QtPrivate33QSequentialIterableConvertFunctorIS3_EEEEbT1_EUlPKvPvE_@Base 6.2.2
 _ZTSZN9QMetaType17registerConverterI5QListI18QQuick3DPickResultE9QIterableI13QMetaSequenceEN9QtPrivate33QSequentialIterableConvertFunctorIS3_EEEEbT1_EUlPKvPvE_@Base 6.2.2
 _ZTSZN9QMetaType19registerMutableViewI5QListI10QMatrix4x4E9QIterableI13QMetaSequenceEN9QtPrivate37QSequentialIterableMutableViewFunctorIS3_EEEEbT1_EUlPvSB_E_@Base 6.2.2
 _ZTSZN9QMetaType19registerMutableViewI5QListI18QQuick3DPickResultE9QIterableI13QMetaSequenceEN9QtPrivate37QSequentialIterableMutableViewFunctorIS3_EEEEbT1_EUlPvSB_E_@Base 6.2.2
 _ZTV12QQuick3DNode@Base 6.2.2
 _ZTV13QQuick3DJoint@Base 6.2.2
 _ZTV13QQuick3DModel@Base 6.2.2
 _ZTV14QQuick3DCamera@Base 6.2.2
 _ZTV14QQuick3DEffect@Base 6.2.2
 _ZTV14QQuick3DLoader@Base 6.2.2
 _ZTV14QQuick3DObject@Base 6.2.2
 _ZTV14QSSGRenderNode@Base 6.2.2
 _ZTV15QQuick3DTexture@Base 6.2.2
 _ZTV16QQuick3DGeometry@Base 6.2.2
 _ZTV16QQuick3DMaterial@Base 6.2.2
 _ZTV16QQuick3DRepeater@Base 6.2.2
 _ZTV16QQuick3DSkeleton@Base 6.2.2
 _ZTV16QQuick3DViewport@Base 6.2.2
 _ZTV17QQuick3DSpotLight@Base 6.2.2
 _ZTV18QQuick3DInstancing@Base 6.2.2
 _ZTV18QQuick3DPointLight@Base 6.2.2
 _ZTV19QQuick3DMorphTarget@Base 6.2.2
 _ZTV19QQuick3DNodePrivate@Base 6.2.2
 _ZTV19QQuick3DRenderStats@Base 6.2.2
 _ZTV19QQuick3DTextureData@Base 6.2.2
 _ZTV20QQuick3DCustomCamera@Base 6.2.2
 _ZTV20QQuick3DInstanceList@Base 6.2.2
 _ZTV20QQuick3DSceneManager@Base 6.2.2
 _ZTV21QQuick3DAbstractLight@Base 6.2.2
 _ZTV21QQuick3DFrustumCamera@Base 6.2.2
 _ZTV21QQuick3DObjectPrivate@Base 6.2.2
 _ZTV22QQuick3DCustomMaterial@Base 6.2.2
 _ZTV22QQuick3DFileInstancing@Base 6.2.2
 _ZTV23QQuick3DDefaultMaterial@Base 6.2.2
 _ZTV23QQuick3DGeometryPrivate@Base 6.2.2
 _ZTV23QQuick3DQuaternionUtils@Base 6.2.2
 _ZTV23QSSGRenderInstanceTable@Base 6.2.2
 _ZTV24QQuick3DDirectionalLight@Base 6.2.2
 _ZTV24QQuick3DSceneEnvironment@Base 6.2.2
 _ZTV25QQuick3DInstanceListEntry@Base 6.2.2
 _ZTV25QQuick3DPerspectiveCamera@Base 6.2.2
 _ZTV25QQuick3DShaderUtilsBuffer@Base 6.2.2
 _ZTV25QQuick3DShaderUtilsShader@Base 6.2.2
 _ZTV26QQuick3DOrthographicCamera@Base 6.2.2
 _ZTV26QQuick3DPrincipledMaterial@Base 6.2.2
 _ZTV27QQuick3DQuaternionAnimation@Base 6.2.2
 _ZTV29QQuick3DShaderUtilsApplyValue@Base 6.2.2
 _ZTV29QQuick3DShaderUtilsRenderPass@Base 6.2.2
 _ZTV30QQuick3DShaderUtilsBufferInput@Base 6.2.2
 _ZTV31QQuick3DShaderUtilsTextureInput@Base 6.2.2
 _ZTV32QQuick3DShaderUtilsRenderCommand@Base 6.2.2
 (optional=templinst)_ZZN9QMetaType21registerConverterImplI5QListI10QMatrix4x4E9QIterableI13QMetaSequenceEEEbSt8functionIFbPKvPvEES_S_E10unregister@Base 6.2.2
 (optional=templinst)_ZZN9QMetaType21registerConverterImplI5QListI18QQuick3DPickResultE9QIterableI13QMetaSequenceEEEbSt8functionIFbPKvPvEES_S_E10unregister@Base 6.2.2
 (optional=templinst)_ZZN9QMetaType23registerMutableViewImplI5QListI10QMatrix4x4E9QIterableI13QMetaSequenceEEEbSt8functionIFbPvS8_EES_S_E10unregister@Base 6.2.2
 (optional=templinst)_ZZN9QMetaType23registerMutableViewImplI5QListI18QQuick3DPickResultE9QIterableI13QMetaSequenceEEEbSt8functionIFbPvS8_EES_S_E10unregister@Base 6.2.2
 (optional=templinst)_ZZN9QtPrivate16QMetaTypeForTypeI10QByteArrayE10getCopyCtrEvENUlPKNS_18QMetaTypeInterfaceEPvPKvE_4_FUNES5_S6_S8_@Base 6.2.2
 (optional=templinst)_ZZN9QtPrivate16QMetaTypeForTypeI10QByteArrayE10getMoveCtrEvENUlPKNS_18QMetaTypeInterfaceEPvS6_E_4_FUNES5_S6_S6_@Base 6.2.2
 (optional=templinst)_ZZN9QtPrivate16QMetaTypeForTypeI10QByteArrayE13getDefaultCtrEvENUlPKNS_18QMetaTypeInterfaceEPvE_4_FUNES5_S6_@Base 6.2.2
 (optional=templinst)_ZZN9QtPrivate16QMetaTypeForTypeI10QByteArrayE7getDtorEvENUlPKNS_18QMetaTypeInterfaceEPvE_4_FUNES5_S6_@Base 6.2.2
 (optional=templinst)_ZZN9QtPrivate16QMetaTypeForTypeI4QUrlE10getCopyCtrEvENUlPKNS_18QMetaTypeInterfaceEPvPKvE_4_FUNES5_S6_S8_@Base 6.2.2
 (optional=templinst)_ZZN9QtPrivate16QMetaTypeForTypeI4QUrlE10getMoveCtrEvENUlPKNS_18QMetaTypeInterfaceEPvS6_E_4_FUNES5_S6_S6_@Base 6.2.2
 (optional=templinst)_ZZN9QtPrivate16QMetaTypeForTypeI4QUrlE13getDefaultCtrEvENUlPKNS_18QMetaTypeInterfaceEPvE_4_FUNES5_S6_@Base 6.2.2
 (optional=templinst)_ZZN9QtPrivate16QMetaTypeForTypeI4QUrlE7getDtorEvENUlPKNS_18QMetaTypeInterfaceEPvE_4_FUNES5_S6_@Base 6.2.2
 (optional=templinst)_ZZN9QtPrivate16QMetaTypeForTypeI7QStringE10getCopyCtrEvENUlPKNS_18QMetaTypeInterfaceEPvPKvE_4_FUNES5_S6_S8_@Base 6.2.2
 (optional=templinst)_ZZN9QtPrivate16QMetaTypeForTypeI7QStringE10getMoveCtrEvENUlPKNS_18QMetaTypeInterfaceEPvS6_E_4_FUNES5_S6_S6_@Base 6.2.2
 (optional=templinst)_ZZN9QtPrivate16QMetaTypeForTypeI7QStringE13getDefaultCtrEvENUlPKNS_18QMetaTypeInterfaceEPvE_4_FUNES5_S6_@Base 6.2.2
 (optional=templinst)_ZZN9QtPrivate16QMetaTypeForTypeI7QStringE7getDtorEvENUlPKNS_18QMetaTypeInterfaceEPvE_4_FUNES5_S6_@Base 6.2.2
 (optional=templinst)_ZZN9QtPrivate16QMetaTypeForTypeI8QVariantE10getCopyCtrEvENUlPKNS_18QMetaTypeInterfaceEPvPKvE_4_FUNES5_S6_S8_@Base 6.2.2
 (optional=templinst)_ZZN9QtPrivate16QMetaTypeForTypeI8QVariantE10getMoveCtrEvENUlPKNS_18QMetaTypeInterfaceEPvS6_E_4_FUNES5_S6_S6_@Base 6.2.2
 (optional=templinst)_ZZN9QtPrivate16QMetaTypeForTypeI8QVariantE13getDefaultCtrEvENUlPKNS_18QMetaTypeInterfaceEPvE_4_FUNES5_S6_@Base 6.2.2
 (optional=templinst)_ZZN9QtPrivate16QMetaTypeForTypeI8QVariantE7getDtorEvENUlPKNS_18QMetaTypeInterfaceEPvE_4_FUNES5_S6_@Base 6.2.2
 (optional=templinst)_ZZN9QtPrivate16QMetaTypeForTypeIP7QObjectE10getCopyCtrEvENUlPKNS_18QMetaTypeInterfaceEPvPKvE_4_FUNES6_S7_S9_@Base 6.2.2
 (optional=templinst)_ZZN9QtPrivate16QMetaTypeForTypeIP7QObjectE10getMoveCtrEvENUlPKNS_18QMetaTypeInterfaceEPvS7_E_4_FUNES6_S7_S7_@Base 6.2.2
 (optional=templinst)_ZZN9QtPrivate16QMetaTypeForTypeIP7QObjectE13getDefaultCtrEvENUlPKNS_18QMetaTypeInterfaceEPvE_4_FUNES6_S7_@Base 6.2.2
 (optional=templinst)_ZZN9QtPrivate16QMetaTypeForTypeIbE10getCopyCtrEvENUlPKNS_18QMetaTypeInterfaceEPvPKvE_4_FUNES4_S5_S7_@Base 6.2.2
 (optional=templinst)_ZZN9QtPrivate16QMetaTypeForTypeIbE10getMoveCtrEvENUlPKNS_18QMetaTypeInterfaceEPvS5_E_4_FUNES4_S5_S5_@Base 6.2.2
 (optional=templinst)_ZZN9QtPrivate16QMetaTypeForTypeIbE13getDefaultCtrEvENUlPKNS_18QMetaTypeInterfaceEPvE_4_FUNES4_S5_@Base 6.2.2
 (optional=templinst)_ZZN9QtPrivate16QMetaTypeForTypeIdE10getCopyCtrEvENUlPKNS_18QMetaTypeInterfaceEPvPKvE_4_FUNES4_S5_S7_@Base 6.2.2
 (optional=templinst)_ZZN9QtPrivate16QMetaTypeForTypeIdE10getMoveCtrEvENUlPKNS_18QMetaTypeInterfaceEPvS5_E_4_FUNES4_S5_S5_@Base 6.2.2
 (optional=templinst)_ZZN9QtPrivate16QMetaTypeForTypeIdE13getDefaultCtrEvENUlPKNS_18QMetaTypeInterfaceEPvE_4_FUNES4_S5_@Base 6.2.2
 (optional=templinst)_ZZN9QtPrivate16QMetaTypeForTypeIfE10getCopyCtrEvENUlPKNS_18QMetaTypeInterfaceEPvPKvE_4_FUNES4_S5_S7_@Base 6.2.2
 (optional=templinst)_ZZN9QtPrivate16QMetaTypeForTypeIfE10getMoveCtrEvENUlPKNS_18QMetaTypeInterfaceEPvS5_E_4_FUNES4_S5_S5_@Base 6.2.2
 (optional=templinst)_ZZN9QtPrivate16QMetaTypeForTypeIfE13getDefaultCtrEvENUlPKNS_18QMetaTypeInterfaceEPvE_4_FUNES4_S5_@Base 6.2.2
 (optional=templinst)_ZZN9QtPrivate16QMetaTypeForTypeIiE10getCopyCtrEvENUlPKNS_18QMetaTypeInterfaceEPvPKvE_4_FUNES4_S5_S7_@Base 6.2.2
 (optional=templinst)_ZZN9QtPrivate16QMetaTypeForTypeIiE10getMoveCtrEvENUlPKNS_18QMetaTypeInterfaceEPvS5_E_4_FUNES4_S5_S5_@Base 6.2.2
 (optional=templinst)_ZZN9QtPrivate16QMetaTypeForTypeIiE13getDefaultCtrEvENUlPKNS_18QMetaTypeInterfaceEPvE_4_FUNES4_S5_@Base 6.2.2
 (optional=templinst)_ZZN9QtPrivate16QMetaTypeForTypeIyE10getCopyCtrEvENUlPKNS_18QMetaTypeInterfaceEPvPKvE_4_FUNES4_S5_S7_@Base 6.2.2
 (optional=templinst)_ZZN9QtPrivate16QMetaTypeForTypeIyE10getMoveCtrEvENUlPKNS_18QMetaTypeInterfaceEPvS5_E_4_FUNES4_S5_S5_@Base 6.2.2
 (optional=templinst)_ZZN9QtPrivate16QMetaTypeForTypeIyE13getDefaultCtrEvENUlPKNS_18QMetaTypeInterfaceEPvE_4_FUNES4_S5_@Base 6.2.2
 (c++)"non-virtual thunk to QQuick3DAbstractLight::~QQuick3DAbstractLight()@Base" 6.2.2
 (c++)"non-virtual thunk to QQuick3DCustomMaterial::~QQuick3DCustomMaterial()@Base" 6.2.2
 (c++)"non-virtual thunk to QQuick3DDefaultMaterial::~QQuick3DDefaultMaterial()@Base" 6.2.2
 (c++)"non-virtual thunk to QQuick3DFileInstancing::~QQuick3DFileInstancing()@Base" 6.2.2
 (c++)"non-virtual thunk to QQuick3DGeometry::~QQuick3DGeometry()@Base" 6.2.2
 (c++)"non-virtual thunk to QQuick3DInstanceList::~QQuick3DInstanceList()@Base" 6.2.2
 (c++)"non-virtual thunk to QQuick3DInstancing::~QQuick3DInstancing()@Base" 6.2.2
 (c++)"non-virtual thunk to QQuick3DJoint::~QQuick3DJoint()@Base" 6.2.2
 (c++)"non-virtual thunk to QQuick3DLoader::componentComplete()@Base" 6.2.2
 (c++)"non-virtual thunk to QQuick3DLoader::~QQuick3DLoader()@Base" 6.2.2
 (c++)"non-virtual thunk to QQuick3DMaterial::~QQuick3DMaterial()@Base" 6.2.2
 (c++)"non-virtual thunk to QQuick3DModel::~QQuick3DModel()@Base" 6.2.2
 (c++)"non-virtual thunk to QQuick3DMorphTarget::~QQuick3DMorphTarget()@Base" 6.2.2
 (c++)"non-virtual thunk to QQuick3DNode::componentComplete()@Base" 6.2.2
 (c++)"non-virtual thunk to QQuick3DNode::~QQuick3DNode()@Base" 6.2.2
 (c++)"non-virtual thunk to QQuick3DObject::classBegin()@Base" 6.2.2
 (c++)"non-virtual thunk to QQuick3DObject::componentComplete()@Base" 6.2.2
 (c++)"non-virtual thunk to QQuick3DObject::~QQuick3DObject()@Base" 6.2.2
 (c++)"non-virtual thunk to QQuick3DPrincipledMaterial::~QQuick3DPrincipledMaterial()@Base" 6.2.2
 (c++)"non-virtual thunk to QQuick3DRepeater::componentComplete()@Base" 6.2.2
 (c++)"non-virtual thunk to QQuick3DRepeater::~QQuick3DRepeater()@Base" 6.2.2
 (c++)"non-virtual thunk to QQuick3DSceneEnvironment::~QQuick3DSceneEnvironment()@Base" 6.2.2
 (c++)"non-virtual thunk to QQuick3DSkeleton::~QQuick3DSkeleton()@Base" 6.2.2
 (c++)"non-virtual thunk to QQuick3DTexture::itemGeometryChanged(QQuickItem*, QQuickGeometryChange, QRectF const&)@Base" 6.2.2
 (c++)"non-virtual thunk to QQuick3DTexture::~QQuick3DTexture()@Base" 6.2.2
 (c++)"non-virtual thunk to QQuick3DTextureData::~QQuick3DTextureData()@Base" 6.2.2
 (c++)"non-virtual thunk to QQuick3DViewport::~QQuick3DViewport()@Base" 6.2.2
