# SymbolsHelper-Confirmed: 6.2.2 amd64
libQt6Quick3DAssetImport.so.6 libqt6quick3dassetimport6 #MINVER#
* Build-Depends-Package: qt6-quick3d-dev
 _ZN17QSSGAssetImporter11qt_metacallEN11QMetaObject4CallEiPPv@Base 6.2.2
 _ZN17QSSGAssetImporter11qt_metacastEPKc@Base 6.2.2
 _ZN17QSSGAssetImporter16staticMetaObjectE@Base 6.2.2
 _ZN22QSSGAssetImportManager10importFileERK4QUrlRN13QSSGSceneDesc5SceneEP7QString@Base 6.2.2
 _ZN22QSSGAssetImportManager10importFileERK7QStringRK4QDirPS0_@Base 6.2.2
 _ZN22QSSGAssetImportManager10importFileERK7QStringRK4QDirRK4QMapIS0_8QVariantEPS0_@Base 6.2.2
 _ZN22QSSGAssetImportManager11qt_metacallEN11QMetaObject4CallEiPPv@Base 6.2.2
 _ZN22QSSGAssetImportManager11qt_metacastEPKc@Base 6.2.2
 _ZN22QSSGAssetImportManager16staticMetaObjectE@Base 6.2.2
 _ZN22QSSGAssetImportManager17getOptionsForFileERK7QString@Base 6.2.2
 _ZN22QSSGAssetImportManagerC1EP7QObject@Base 6.2.2
 _ZN22QSSGAssetImportManagerC2EP7QObject@Base 6.2.2
 _ZN22QSSGAssetImportManagerD0Ev@Base 6.2.2
 _ZN22QSSGAssetImportManagerD1Ev@Base 6.2.2
 _ZN22QSSGAssetImportManagerD2Ev@Base 6.2.2
 _ZN23QSSGAssetImporterPlugin11qt_metacallEN11QMetaObject4CallEiPPv@Base 6.2.2
 _ZN23QSSGAssetImporterPlugin11qt_metacastEPKc@Base 6.2.2
 _ZN23QSSGAssetImporterPlugin16staticMetaObjectE@Base 6.2.2
 _ZN23QSSGLightmapUVGenerator3runERK10QByteArrayS2_S2_S2_N8QSSGMesh4Mesh13ComponentTypeE@Base 6.2.2
 _ZN24QSSGAssetImporterFactory4keysEv@Base 6.2.2
 _ZN24QSSGAssetImporterFactory6createERK7QStringRK5QListIS0_E@Base 6.2.2
 _ZNK17QSSGAssetImporter10metaObjectEv@Base 6.2.2
 _ZNK22QSSGAssetImportManager10metaObjectEv@Base 6.2.2
 _ZNK22QSSGAssetImportManager13getAllOptionsEv@Base 6.2.2
 _ZNK22QSSGAssetImportManager22getImporterPluginInfosEv@Base 6.2.2
 _ZNK22QSSGAssetImportManager22getSupportedExtensionsEv@Base 6.2.2
 _ZNK23QSSGAssetImporterPlugin10metaObjectEv@Base 6.2.2
 _ZTI17QSSGAssetImporter@Base 6.2.2
 _ZTI22QSSGAssetImportManager@Base 6.2.2
 _ZTI23QSSGAssetImporterPlugin@Base 6.2.2
 _ZTINSt6thread11_State_implINS_8_InvokerISt5tupleIJPFvPN6xatlas8internal13TaskSchedulerEPNS5_6WorkerEjES6_S8_jEEEEEE@Base 6.2.2
 _ZTS17QSSGAssetImporter@Base 6.2.2
 _ZTS22QSSGAssetImportManager@Base 6.2.2
 _ZTS23QSSGAssetImporterPlugin@Base 6.2.2
 _ZTSNSt6thread11_State_implINS_8_InvokerISt5tupleIJPFvPN6xatlas8internal13TaskSchedulerEPNS5_6WorkerEjES6_S8_jEEEEEE@Base 6.2.2
 _ZTV17QSSGAssetImporter@Base 6.2.2
 _ZTV22QSSGAssetImportManager@Base 6.2.2
 _ZTV23QSSGAssetImporterPlugin@Base 6.2.2
 _ZTVNSt6thread11_State_implINS_8_InvokerISt5tupleIJPFvPN6xatlas8internal13TaskSchedulerEPNS5_6WorkerEjES6_S8_jEEEEEE@Base 6.2.2
